(dp0
VTrine University
p1
(dp2
S'city'
p3
VAngola, IN
p4
sS'addr'
p5
V1 University Ave, Angola, IN
p6
sS'exp'
p7
I511663
ssVSyracuse University
p8
(dp9
g3
VSyracuse, NY
p10
sg5
V900 South Crouse Ave., Syracuse, NY
p11
sg7
I23219794
ssVMichigan Technological University
p12
(dp13
g3
VHoughton, MI
p14
sg5
V1400 Townsend Drive, Houghton, MI
p15
sg7
I1827249
ssVUniversity of Northern Colorado
p16
(dp17
g3
VGreeley, CO
p18
sg5
VCarter Hall - Rm 4000, Greeley, CO
p19
sg7
I3457618
ssVBaker University
p20
(dp21
g3
VBaldwin City, KS
p22
sg5
V618 Eighth Street, Baldwin City, KS
p23
sg7
I1575195
ssVSaint Anselm College
p24
(dp25
g3
VManchester, NH
p26
sg5
V100 Saint Anselm Drive, Manchester, NH
p27
sg7
I1182439
ssVDickinson State University
p28
(dp29
g3
VDickinson, ND
p30
sg5
V291 Campus Drive, Dickinson, ND
p31
sg7
I382341
ssVNichols College
p32
(dp33
g3
VDudley, MA
p34
sg5
VCenter Rd, Dudley, MA
p35
sg7
I393743
ssVTroy University
p36
(dp37
g3
VTroy, AL
p38
sg5
VUniversity Avenue, Troy, AL
p39
sg7
I5916308
ssVKutztown University of Pennsylvania
p40
(dp41
g3
VKutztown, PA
p42
sg5
V15200 Kutztown Rd, Kutztown, PA
p43
sg7
I722173
ssVMerced College
p44
(dp45
g3
VMerced, CA
p46
sg5
V3600 M St, Merced, CA
p47
sg7
I83470
ssVNorwich University
p48
(dp49
g3
VNorthfield, VT
p50
sg5
V158 Harmon Drive, Northfield, VT
p51
sg7
I592488
ssVElon University
p52
(dp53
g3
VElon, NC
p54
sg5
V100 Campus Drive, Elon, NC
p55
sg7
I5317063
ssVLake Forest College
p56
(dp57
g3
VLake Forest, IL
p58
sg5
V555 N Sheridan Road, Lake Forest, IL
p59
sg7
I327727
ssVSouth Dakota School of Mines and Technology
p60
(dp61
g3
VRapid City, SD
p62
sg5
V501 E Saint Joseph St, Rapid City, SD
p63
sg7
I1334247
ssVBrevard College
p64
(dp65
g3
VBrevard, NC
p66
sg5
VOne Brevard College Drive, Brevard, NC
p67
sg7
I952580
ssVPennsylvania State University-Main Campus
p68
(dp69
g3
VUniversity Park, PA
p70
sg5
V201 Old Main, University Park, PA
p71
sg7
I36163151
ssVTrinity College
p72
(dp73
g3
VHartford, CT
p74
sg5
V300 Summit St, Hartford, CT
p75
sg7
I689058
ssVDodge City Community College
p76
(dp77
g3
VDodge City, KS
p78
sg5
V2501 N 14th Ave, Dodge City, KS
p79
sg7
I644051
ssVLoras College
p80
(dp81
g3
VDubuque, IA
p82
sg5
V1450 Alta Vista, Dubuque, IA
p83
sg7
I419829
ssVBacone College
p84
(dp85
g3
VMuskogee, OK
p86
sg5
V2299 Old Bacone Rd, Muskogee, OK
p87
sg7
I1152199
ssVWayne State College
p88
(dp89
g3
VWayne, NE
p90
sg5
V1111 Main St, Wayne, NE
p91
sg7
I864805
ssVThe University of Texas at San Antonio
p92
(dp93
g3
VSan Antonio, TX
p94
sg5
VOne UTSA Circle, San Antonio, TX
p95
sg7
I8782297
ssVGeorge Fox University
p96
(dp97
g3
VNewberg, OR
p98
sg5
V414 N Meridian St, Newberg, OR
p99
sg7
I1235859
ssVAustin Peay State University
p100
(dp101
g3
VClarksville, TN
p102
sg5
V601 College St, Clarksville, TN
p103
sg7
I3168464
ssVCoffeyville Community College
p104
(dp105
g3
VCoffeyville, KS
p106
sg5
V400 W 11th St, Coffeyville, KS
p107
sg7
I536811
ssVIthaca College
p108
(dp109
g3
VIthaca, NY
p110
sg5
V953 Danby Rd, Ithaca, NY
p111
sg7
I608581
ssVMorehead State University
p112
(dp113
g3
VMorehead, KY
p114
sg5
VUniversity Blvd, Morehead, KY
p115
sg7
I1066625
ssVThe University of Findlay
p116
(dp117
g3
VFindlay, OH
p118
sg5
V1000 North Main Street, Findlay, OH
p119
sg7
I1771282
ssVMontana State University-Northern
p120
(dp121
g3
VHavre, MT
p122
sg5
V300 W 11th St, Havre, MT
p123
sg7
I760183
ssVOberlin College
p124
(dp125
g3
VOberlin, OH
p126
sg5
V70 N Professor St, Oberlin, OH
p127
sg7
I399570
ssVWest Virginia Wesleyan College
p128
(dp129
g3
VBuckhannon, WV
p130
sg5
V59 College Ave, Buckhannon, WV
p131
sg7
I1275364
ssVUniversity of Arkansas at Pine Bluff
p132
(dp133
g3
VPine Bluff, AR
p134
sg5
V1200 N University Mail Slot 4789, Pine Bluff, AR
p135
sg7
I1774380
ssVBethany College
p136
(dp137
g3
VBethany, WV
p138
sg5
V31 E Campus Dr, Bethany, WV
p139
sg7
I445782
ssVTrinity Valley Community College
p140
(dp141
g3
VAthens, TX
p142
sg5
V100 Cardinal Drive, Athens, TX
p143
sg7
I911828
ssVMarshall University
p144
(dp145
g3
VHuntington, WV
p146
sg5
V1 John Marshall Dr, Huntington, WV
p147
sg7
I8855865
ssVSUNY Maritime College
p148
(dp149
g3
VThroggs Neck, NY
p150
sg5
V6 Pennyfield Avenue, Throggs Neck, NY
p151
sg7
I496022
ssVUniversity of Minnesota-Morris
p152
(dp153
g3
VMorris, MN
p154
sg5
V309 Behmler Hall, Morris, MN
p155
sg7
I253411
ssVHoward Payne University
p156
(dp157
g3
VBrownwood, TX
p158
sg5
V1000 Fisk St., Brownwood, TX
p159
sg7
I482474
ssVMissouri University of Science and Technology
p160
(dp161
g3
VRolla, MO
p162
sg5
V1870 Miner Circle, Rolla, MO
p163
sg7
I1452406
ssVUniversity of Cincinnati-Main Campus
p164
(dp165
g3
VCincinnati, OH
p166
sg5
V2624 Clifton Avenue, Cincinnati, OH
p167
sg7
I13848429
ssVValley Forge Military College
p168
(dp169
g3
VWayne, PA
p170
sg5
V1001 Eagle Rd, Wayne, PA
p171
sg7
I65393
ssVFresno City College
p172
(dp173
g3
VFresno, CA
p174
sg5
V1101 E. University Ave, Fresno, CA
p175
sg7
I207296
ssVTexas State University
p176
(dp177
g3
VSan Marcos, TX
p178
sg5
V601 University Dr, San Marcos, TX
p179
sg7
I7457817
ssVChristopher Newport University
p180
(dp181
g3
VNewport News, VA
p182
sg5
V1 Avenue of the Arts, Newport News, VA
p183
sg7
I662462
ssVLewis & Clark College
p184
(dp185
g3
VPortland, OR
p186
sg5
V0615 S W Palatine Hill Rd, Portland, OR
p187
sg7
I544604
ssVMt San Jacinto Community College District
p188
(dp189
g3
VSan Jacinto, CA
p190
sg5
V1499 N. State St., San Jacinto, CA
p191
sg7
I108644
ssVGardner-Webb University
p192
(dp193
g3
VBoiling Springs, NC
p194
sg5
VMain St, Boiling Springs, NC
p195
sg7
I3434841
ssVUniversity of Tulsa
p196
(dp197
g3
VTulsa, OK
p198
sg5
V800 South Tucker Drive, Tulsa, OK
p199
sg7
I13090492
ssVHinds Community College
p200
(dp201
g3
VRaymond, MS
p202
sg5
V608 Hinds Boulevard, Raymond, MS
p203
sg7
I652846
ssVConcordia University-Saint Paul
p204
(dp205
g3
VSaint Paul, MN
p206
sg5
V1282 Concordia Ave, Saint Paul, MN
p207
sg7
I879714
ssVKent State University at Kent
p208
(dp209
g3
VKent, OH
p210
sg5
VExecutive Office, 2nd Floor Library, Kent, OH
p211
sg7
I6139482
ssVCatawba College
p212
(dp213
g3
VSalisbury, NC
p214
sg5
V2300 W Innes St, Salisbury, NC
p215
sg7
I1541077
ssVDelaware Valley University
p216
(dp217
g3
VDoylestown, PA
p218
sg5
V700 E Butler Ave, Doylestown, PA
p219
sg7
I516075
ssVUniversity of Missouri-Columbia
p220
(dp221
g3
VColumbia, MO
p222
sg5
V105 Jesse Hall, Columbia, MO
p223
sg7
I21061689
ssVAmerican River College
p224
(dp225
g3
VSacramento, CA
p226
sg5
V4700 College Oak Dr, Sacramento, CA
p227
sg7
I259774
ssVUniversity of North Dakota
p228
(dp229
g3
VGrand Forks, ND
p230
sg5
V264 Centennial Drive, Stop 8193, Grand Forks, ND
p231
sg7
I4019362
ssVWake Forest University
p232
(dp233
g3
VWinston-Salem, NC
p234
sg5
V1834 Wake Forest Road, Winston-Salem, NC
p235
sg7
I16611110
ssVMichigan State University
p236
(dp237
g3
VEast Lansing, MI
p238
sg5
V426 Auditorium Road, East Lansing, MI
p239
sg7
I31978126
ssVPrairie View A & M University
p240
(dp241
g3
VPrairie View, TX
p242
sg5
VFM 1098 Road & University Drive, Prairie View, TX
p243
sg7
I2785587
ssVDean College
p244
(dp245
g3
VFranklin, MA
p246
sg5
V99 Main Street, Franklin, MA
p247
sg7
I427689
ssVFlorida Institute of Technology
p248
(dp249
g3
VMelbourne, FL
p250
sg5
V150 West University Boulevard, Melbourne, FL
p251
sg7
I2343373
ssVSouthern Connecticut State University
p252
(dp253
g3
VNew Haven, CT
p254
sg5
V501 Crescent Street, New Haven, CT
p255
sg7
I943080
ssVColorado State University-Fort Collins
p256
(dp257
g3
VFort Collins, CO
p258
sg5
V102 Administration Building, Fort Collins, CO
p259
sg7
I13446340
ssVMississippi Delta Community College
p260
(dp261
g3
VMoorhead, MS
p262
sg5
VHwy 3 and Cherry St, Moorhead, MS
p263
sg7
I367805
ssVHouston Baptist University
p264
(dp265
g3
VHouston, TX
p266
sg5
V7502 Fondren Rd, Houston, TX
p267
sg7
I3692017
ssVEast Texas Baptist University
p268
(dp269
g3
VMarshall, TX
p270
sg5
VOne Tiger Drive, Marshall, TX
p271
sg7
I654547
ssVWashington and Lee University
p272
(dp273
g3
VLexington, VA
p274
sg5
V204 West Washington Street, Lexington, VA
p275
sg7
I423066
ssVPoint University
p276
(dp277
g3
VWest Point, GA
p278
sg5
V507 West 10th Street, West Point, GA
p279
sg7
I1547284
ssVUniversity of Wisconsin-Platteville
p280
(dp281
g3
VPlatteville, WI
p282
sg5
V1 University Plaza, Platteville, WI
p283
sg7
I489240
ssVClark Atlanta University
p284
(dp285
g3
VAtlanta, GA
p286
sg5
V223 James P Brawley Drive, SW, Atlanta, GA
p287
sg7
I1515305
ssVUniversity of Wisconsin-Whitewater
p288
(dp289
g3
VWhitewater, WI
p290
sg5
V800 W Main St, Whitewater, WI
p291
sg7
I421721
ssVThe College of Idaho
p292
(dp293
g3
VCaldwell, ID
p294
sg5
V2112 Cleveland Blvd, Caldwell, ID
p295
sg7
I894635
ssVCastleton University
p296
(dp297
g3
VCastleton, VT
p298
sg5
V62 Alumni Dr, Castleton, VT
p299
sg7
I337779
ssVUniversity of Northwestern-St Paul
p300
(dp301
g3
VSaint Paul, MN
p302
sg5
V3003 Snelling Ave N, Saint Paul, MN
p303
sg7
I314138
ssVWidener University-Main Campus
p304
(dp305
g3
VChester, PA
p306
sg5
VOne University Place, Chester, PA
p307
sg7
I613973
ssVBlinn College
p308
(dp309
g3
VBrenham, TX
p310
sg5
V902 College Ave, Brenham, TX
p311
sg7
I833324
ssVBethune-Cookman University
p312
(dp313
g3
VDaytona Beach, FL
p314
sg5
V640 Dr Mary McLeod Bethune Blvd, Daytona Beach, FL
p315
sg7
I5544310
ssVSaint Augustine's University
p316
(dp317
g3
VRaleigh, NC
p318
sg5
V1315 Oakwood Avenue, Raleigh, NC
p319
sg7
I904055
ssVGolden West College
p320
(dp321
g3
VHuntington Beach, CA
p322
sg5
V15744 Goldenwest St., Huntington Beach, CA
p323
sg7
I119515
ssVWayne State University
p324
(dp325
g3
VDetroit, MI
p326
sg5
V656 West Kirby Street, Detroit, MI
p327
sg7
I2178114
ssVUniversity of North Carolina at Pembroke
p328
(dp329
g3
VPembroke, NC
p330
sg5
VOne University Drive, Pembroke, NC
p331
sg7
I748712
ssVRobert Morris University
p332
(dp333
g3
VMoon Township, PA
p334
sg5
V6001 University Boulevard, Moon Township, PA
p335
sg7
I2558250
ssVRocky Mountain College
p336
(dp337
g3
VBillings, MT
p338
sg5
V1511 Poly Drive, Billings, MT
p339
sg7
I940814
ssVCarroll College
p340
(dp341
g3
VHelena, MT
p342
sg5
V1601 N Benton Ave, Helena, MT
p343
sg7
I1286691
ssVDenison University
p344
(dp345
g3
VGranville, OH
p346
sg5
V100 West College St, Granville, OH
p347
sg7
I426376
ssVAnderson University
p348
(dp349
g3
VAnderson, IN
p350
sg5
V1100 E 5th St, Anderson, IN
p351
sg7
I282696
ssVUniversity of Indianapolis
p352
(dp353
g3
VIndianapolis, IN
p354
sg5
V1400 E Hanna Ave, Indianapolis, IN
p355
sg7
I2035802
ssVUniversity of Saint Mary
p356
(dp357
g3
VLeavenworth, KS
p358
sg5
V4100 S 4th St Trafficway, Leavenworth, KS
p359
sg7
I423530
ssVIowa Wesleyan University
p360
(dp361
g3
VMount Pleasant, IA
p362
sg5
V601 N Main Street, Mount Pleasant, IA
p363
sg7
I205037
ssVEastern Washington University
p364
(dp365
g3
VCheney, WA
p366
sg5
V526 5th Street, Cheney, WA
p367
sg7
I4695179
ssVGrand View University
p368
(dp369
g3
VDes Moines, IA
p370
sg5
V1200 Grandview Ave, Des Moines, IA
p371
sg7
I1656890
ssVCoe College
p372
(dp373
g3
VCedar Rapids, IA
p374
sg5
V1220 First Ave NE, Cedar Rapids, IA
p375
sg7
I341876
ssVMcMurry University
p376
(dp377
g3
VAbilene, TX
p378
sg5
VS 14th and Sayles Blvd, Abilene, TX
p379
sg7
I720010
ssVColgate University
p380
(dp381
g3
VHamilton, NY
p382
sg5
V13 Oak Dr, Hamilton, NY
p383
sg7
I5628724
ssVSouthwestern Assemblies of God University
p384
(dp385
g3
VWaxahachie, TX
p386
sg5
V1200 Sycamore, Waxahachie, TX
p387
sg7
I731732
ssVHeidelberg University
p388
(dp389
g3
VTiffin, OH
p390
sg5
V310 E Market St, Tiffin, OH
p391
sg7
I523538
ssVNorthwestern Oklahoma State University
p392
(dp393
g3
VAlva, OK
p394
sg5
V709 Oklahoma Blvd, Alva, OK
p395
sg7
I952216
ssVEast Carolina University
p396
(dp397
g3
VGreenville, NC
p398
sg5
VEast 5th Street, Greenville, NC
p399
sg7
I11609147
ssVMerrimack College
p400
(dp401
g3
VNorth Andover, MA
p402
sg5
V315 Turnpike St, North Andover, MA
p403
sg7
I1612710
ssVContra Costa College
p404
(dp405
g3
VSan Pablo, CA
p406
sg5
V2600 Mission Bell Dr, San Pablo, CA
p407
sg7
I128641
ssVUniversity of Central Missouri
p408
(dp409
g3
VWarrensburg, MO
p410
sg5
V202 Administration Building, Warrensburg, MO
p411
sg7
I1887359
ssVRutgers University-New Brunswick
p412
(dp413
g3
VNew Brunswick, NJ
p414
sg5
V83 Somerset St, New Brunswick, NJ
p415
sg7
I25236282
ssVElizabeth City State University
p416
(dp417
g3
VElizabeth City, NC
p418
sg5
V1704 Weeksville Rd, Elizabeth City, NC
p419
sg7
I475107
ssVDakota Wesleyan University
p420
(dp421
g3
VMitchell, SD
p422
sg5
V1200 W University Ave, Mitchell, SD
p423
sg7
I734592
ssVPresbyterian College
p424
(dp425
g3
VClinton, SC
p426
sg5
V503 South Broad Street, Clinton, SC
p427
sg7
I4054502
ssVUniversity of Toledo
p428
(dp429
g3
VToledo, OH
p430
sg5
V2801 W Bancroft, Toledo, OH
p431
sg7
I9313584
ssVRose-Hulman Institute of Technology
p432
(dp433
g3
VTerre Haute, IN
p434
sg5
V5500 Wabash Avenue, Terre Haute, IN
p435
sg7
I421986
ssVJohn Carroll University
p436
(dp437
g3
VUniversity Heights, OH
p438
sg5
V1 John Carroll Boulevard, University Heights, OH
p439
sg7
I726745
ssVEndicott College
p440
(dp441
g3
VBeverly, MA
p442
sg5
V376 Hale Street, Beverly, MA
p443
sg7
I259648
ssVMacalester College
p444
(dp445
g3
VSaint Paul, MN
p446
sg5
V1600 Grand Ave, Saint Paul, MN
p447
sg7
I542622
ssVHanover College
p448
(dp449
g3
VHanover, IN
p450
sg5
V517 Ball Dr., Hanover, IN
p451
sg7
I476699
ssVMorrisville State College
p452
(dp453
g3
VMorrisville, NY
p454
sg5
V80 Eaton Street, Morrisville, NY
p455
sg7
I397774
ssVTrinity International University-Illinois
p456
(dp457
g3
VDeerfield, IL
p458
sg5
V2065 Half Day Rd, Deerfield, IL
p459
sg7
I1574387
ssVNorth Central College
p460
(dp461
g3
VNaperville, IL
p462
sg5
V30 N Brainard St, Naperville, IL
p463
sg7
I594042
ssVBethel University
p464
(dp465
g3
VMcKenzie, TN
p466
sg5
V325 Cherry Ave, McKenzie, TN
p467
sg7
I1518714
ssVSiena Heights University
p468
(dp469
g3
VAdrian, MI
p470
sg5
V1247 E. Siena Heights Dr., Adrian, MI
p471
sg7
I1502234
ssVCoahoma Community College
p472
(dp473
g3
VClarksdale, MS
p474
sg5
V3240 Friars Point Rd, Clarksdale, MS
p475
sg7
I693902
ssVBenedictine College
p476
(dp477
g3
VAtchison, KS
p478
sg5
V1020 N 2nd St, Atchison, KS
p479
sg7
I2428782
ssVUniversity of North Texas
p480
(dp481
g3
VDenton, TX
p482
sg5
V1501 W.Chestnut Ave., Denton, TX
p483
sg7
I8417458
ssVMillikin University
p484
(dp485
g3
VDecatur, IL
p486
sg5
V1184 W Main St, Decatur, IL
p487
sg7
I494763
ssVHutchinson Community College
p488
(dp489
g3
VHutchinson, KS
p490
sg5
V1300 N Plum St, Hutchinson, KS
p491
sg7
I858763
ssVDrake University
p492
(dp493
g3
VDes Moines, IA
p494
sg5
V2507 University Avenue, Des Moines, IA
p495
sg7
I1071971
ssVAppalachian State University
p496
(dp497
g3
VBoone, NC
p498
sg5
V287 Rivers St, Boone, NC
p499
sg7
I6630031
ssVWest Hills College-Coalinga
p500
(dp501
g3
VCoalinga, CA
p502
sg5
V300 Cherry Lane, Coalinga, CA
p503
sg7
I347402
ssVEastern Oregon University
p504
(dp505
g3
VLa Grande, OR
p506
sg5
VOne University Blvd, La Grande, OR
p507
sg7
I902799
ssVWilliams College
p508
(dp509
g3
VWilliamstown, MA
p510
sg5
V880 Main St, Williamstown, MA
p511
sg7
I527244
ssVBrown University
p512
(dp513
g3
VProvidence, RI
p514
sg5
VOne Prospect Street, Providence, RI
p515
sg7
I2162633
ssVSanta Ana College
p516
(dp517
g3
VSanta Ana, CA
p518
sg5
V1530 W. 17th Street, Santa Ana, CA
p519
sg7
I220946
ssVTexas A & M University-College Station
p520
(dp521
g3
VCollege Station, TX
p522
sg5
VJKW Administration Building, Suite 100, College Station, TX
p523
sg7
I29945769
ssVNorth Carolina Wesleyan College
p524
(dp525
g3
VRocky Mount, NC
p526
sg5
V3400 N Wesleyan Blvd, Rocky Mount, NC
p527
sg7
I428100
ssVPace University-New York
p528
(dp529
g3
VNew York, NY
p530
sg5
V1 Pace Plaza, New York, NY
p531
sg7
I1814227
ssVPomona College
p532
(dp533
g3
VClaremont, CA
p534
sg5
V550 N College Ave, Claremont, CA
p535
sg7
I372091
ssVWorcester Polytechnic Institute
p536
(dp537
g3
VWorcester, MA
p538
sg5
V100 Institute Road, Worcester, MA
p539
sg7
I326031
ssVUniversity of Nebraska at Kearney
p540
(dp541
g3
VKearney, NE
p542
sg5
V905 W 25th St, Kearney, NE
p543
sg7
I1572013
ssVAngelo State University
p544
(dp545
g3
VSan Angelo, TX
p546
sg5
V2601 W. Avenue N, San Angelo, TX
p547
sg7
I1449577
ssVWestminster College
p548
(dp549
g3
VNew Wilmington, PA
p550
sg5
V319 South Market  Street, New Wilmington, PA
p551
sg7
I416283
ssVMillersville University of Pennsylvania
p552
(dp553
g3
VMillersville, PA
p554
sg5
V1 South George Street, Lyle Hall, Millersville, PA
p555
sg7
I881243
ssVMurray State University
p556
(dp557
g3
VMurray, KY
p558
sg5
V218 Wells Hall, Murray, KY
p559
sg7
I2623731
ssVUniversity of Wisconsin-Stout
p560
(dp561
g3
VMenomonie, WI
p562
sg5
V712 S. Broadway St., Menomonie, WI
p563
sg7
I323728
ssVTennessee State University
p564
(dp565
g3
VNashville, TN
p566
sg5
V3500 John A. Merritt Blvd, Nashville, TN
p567
sg7
I3609107
ssVLouisiana State University and Agricultural & Mechanical College
p568
(dp569
g3
VBaton Rouge, LA
p570
sg5
V156 Thomas Boyd Hall, Baton Rouge, LA
p571
sg7
I30463660
ssVMissouri Valley College
p572
(dp573
g3
VMarshall, MO
p574
sg5
V500 E College St, Marshall, MO
p575
sg7
I1284801
ssVGreensboro College
p576
(dp577
g3
VGreensboro, NC
p578
sg5
V815 W Market St, Greensboro, NC
p579
sg7
I238421
ssVWheaton College
p580
(dp581
g3
VWheaton, IL
p582
sg5
V501 College Ave, Wheaton, IL
p583
sg7
I537857
ssVUniversity of Wisconsin-Madison
p584
(dp585
g3
VMadison, WI
p586
sg5
V500 Lincoln Dr, Madison, WI
p587
sg7
I30731315
ssVMontclair State University
p588
(dp589
g3
VMontclair, NJ
p590
sg5
V1 Normal Avenue, Montclair, NJ
p591
sg7
I480628
ssVAlbright College
p592
(dp593
g3
VReading, PA
p594
sg5
V1621 N. 13th St., Reading, PA
p595
sg7
I509615
ssVAmherst College
p596
(dp597
g3
VAmherst, MA
p598
sg5
VBoltwood Avenue, Amherst, MA
p599
sg7
I639614
ssVGeorgia Institute of Technology-Main Campus
p600
(dp601
g3
VAtlanta, GA
p602
sg5
V225 North Ave, Atlanta, GA
p603
sg7
I17375756
ssVCalifornia University of Pennsylvania
p604
(dp605
g3
VCalifornia, PA
p606
sg5
V250 University Ave, California, PA
p607
sg7
I1232602
ssVUniversity of La Verne
p608
(dp609
g3
VLa Verne, CA
p610
sg5
V1950 Third St, La Verne, CA
p611
sg7
I471601
ssVFerris State University
p612
(dp613
g3
VBig Rapids, MI
p614
sg5
V1201 S State St, Big Rapids, MI
p615
sg7
I1564655
ssVUniversity of St Francis
p616
(dp617
g3
VJoliet, IL
p618
sg5
V500 North Wilcox Street, Joliet, IL
p619
sg7
I1314018
ssVMontana State University
p620
(dp621
g3
VBozeman, MT
p622
sg5
VMontana State University, Bozeman, MT
p623
sg7
I6515106
ssVMoorpark College
p624
(dp625
g3
VMoorpark, CA
p626
sg5
V7075 Campus Rd, Moorpark, CA
p627
sg7
I157118
ssVAllegheny College
p628
(dp629
g3
VMeadville, PA
p630
sg5
V520 N Main St, Meadville, PA
p631
sg7
I594615
ssVCollege of DuPage
p632
(dp633
g3
VGlen Ellyn, IL
p634
sg5
V425 Fawell Blvd., Glen Ellyn, IL
p635
sg7
I361114
ssVUniversity of Maryland-College Park
p636
(dp637
g3
VCollege Park, MD
p638
sg5
VUniversity of Maryland, College Park, MD
p639
sg7
I20779161
ssVTusculum College
p640
(dp641
g3
VGreeneville, TN
p642
sg5
V60 Shiloh Road, Greeneville, TN
p643
sg7
I1641732
ssVThe University of Tennessee-Knoxville
p644
(dp645
g3
VKnoxville, TN
p646
sg5
V527 Andy Holt Tower, Knoxville, TN
p647
sg7
I28158835
ssVGeorgetown College
p648
(dp649
g3
VGeorgetown, KY
p650
sg5
V400 East College Street, Georgetown, KY
p651
sg7
I1994567
ssVUniversity of Minnesota-Crookston
p652
(dp653
g3
VCrookston, MN
p654
sg5
V2900 University Ave, Crookston, MN
p655
sg7
I1199664
ssVUtica College
p656
(dp657
g3
VUtica, NY
p658
sg5
V1600 Burrstone Rd, Utica, NY
p659
sg7
I560676
ssVSan Jose State University
p660
(dp661
g3
VSan Jose, CA
p662
sg5
VOne Washington Square, San Jose, CA
p663
sg7
I8098929
ssVWest Liberty University
p664
(dp665
g3
VWest Liberty, WV
p666
sg5
V208 University Drive, West Liberty, WV
p667
sg7
I1264455
ssVDordt College
p668
(dp669
g3
VSioux Center, IA
p670
sg5
V498 4th Ave NE, Sioux Center, IA
p671
sg7
I1118244
ssVUniversity of Rhode Island
p672
(dp673
g3
VKingston, RI
p674
sg5
VGreen Hall, 35 Campus Avenue, Kingston, RI
p675
sg7
I4112714
ssVMonmouth College
p676
(dp677
g3
VMonmouth, IL
p678
sg5
V700 E Broadway, Monmouth, IL
p679
sg7
I336999
ssVDelaware State University
p680
(dp681
g3
VDover, DE
p682
sg5
V1200 N. Dupont Highway, Dover, DE
p683
sg7
I3243113
ssVSlippery Rock University of Pennsylvania
p684
(dp685
g3
VSlippery Rock, PA
p686
sg5
V1 Morrow Way, Slippery Rock, PA
p687
sg7
I1101675
ssVUniversity of South Florida-Main Campus
p688
(dp689
g3
VTampa, FL
p690
sg5
V4202 East Fowler Ave, Tampa, FL
p691
sg7
I12871984
ssVCapital University
p692
(dp693
g3
VColumbus, OH
p694
sg5
V1 College and Main, Columbus, OH
p695
sg7
I365372
ssVMendocino College
p696
(dp697
g3
VUkiah, CA
p698
sg5
V1000 Hensley Creek Road, Ukiah, CA
p699
sg7
I120305
ssVCharleston Southern University
p700
(dp701
g3
VCharleston, SC
p702
sg5
V9200 University Blvd, Charleston, SC
p703
sg7
I4104535
ssVKansas State University
p704
(dp705
g3
VManhattan, KS
p706
sg5
VAnderson Hall, Manhattan, KS
p707
sg7
I18361189
ssVUniversity of North Alabama
p708
(dp709
g3
VFlorence, AL
p710
sg5
VOne Harrison Plaza, Florence, AL
p711
sg7
I1920424
ssVHampton University
p712
(dp713
g3
VHampton, VA
p714
sg5
VE Queen Street, Hampton, VA
p715
sg7
I3450292
ssVChabot College
p716
(dp717
g3
VHayward, CA
p718
sg5
V25555 Hesperian Blvd, Hayward, CA
p719
sg7
I253771
ssVAustin College
p720
(dp721
g3
VSherman, TX
p722
sg5
V900 N Grand Ave, Sherman, TX
p723
sg7
I353334
ssVMinnesota State University-Mankato
p724
(dp725
g3
VMankato, MN
p726
sg5
VSouth Rd and Ellis Ave, Mankato, MN
p727
sg7
I1264786
ssVSan Diego Mesa College
p728
(dp729
g3
VSan Diego, CA
p730
sg5
V7250 Mesa College Dr, San Diego, CA
p731
sg7
I131604
ssVStevenson University
p732
(dp733
g3
VStevenson, MD
p734
sg5
V1525 Greenspring Valley Rd, Stevenson, MD
p735
sg7
I650241
ssVLakeland College
p736
(dp737
g3
VPlymouth, WI
p738
sg5
VW3718 South Drive, Cth M, Plymouth, WI
p739
sg7
I279408
ssVEastern New Mexico University-Main Campus
p740
(dp741
g3
VPortales, NM
p742
sg5
VENMU Station 2, 1500 S Ave K, Portales, NM
p743
sg7
I1006970
ssVLebanon Valley College
p744
(dp745
g3
VAnnville, PA
p746
sg5
V101 N College Ave, Annville, PA
p747
sg7
I430681
ssVUniversity of Central Arkansas
p748
(dp749
g3
VConway, AR
p750
sg5
V201 Donaghey Ave, Conway, AR
p751
sg7
I2910420
ssVNorthwestern University
p752
(dp753
g3
VEvanston, IL
p754
sg5
V633 Clark St, Evanston, IL
p755
sg7
I24629741
ssVVirginia Union University
p756
(dp757
g3
VRichmond, VA
p758
sg5
V1500 N Lombardy St, Richmond, VA
p759
sg7
I1200041
ssVSouthern Nazarene University
p760
(dp761
g3
VBethany, OK
p762
sg5
V6729 NW 39th Expy, Bethany, OK
p763
sg7
I1587912
ssVMiddlebury College
p764
(dp765
g3
VMiddlebury, VT
p766
sg5
VOld Chapel, Middlebury, VT
p767
sg7
I418264
ssVDePauw University
p768
(dp769
g3
VGreencastle, IN
p770
sg5
V313 S Locust St, Greencastle, IN
p771
sg7
I716923
ssVBaldwin Wallace University
p772
(dp773
g3
VBerea, OH
p774
sg5
V275 Eastland Rd, Berea, OH
p775
sg7
I562369
ssVIllinois Wesleyan University
p776
(dp777
g3
VBloomington, IL
p778
sg5
V1312 N Park St, PO Box 2900, Bloomington, IL
p779
sg7
I375908
ssVGlendale Community College
p780
(dp781
g3
VGlendale, CA
p782
sg5
V1500 N Verdugo Rd, Glendale, CA
p783
sg7
I78773
ssVMcPherson College
p784
(dp785
g3
VMcPherson, KS
p786
sg5
V1600 E. Euclid, McPherson, KS
p787
sg7
I402091
ssVFoothill College
p788
(dp789
g3
VLos Altos Hills, CA
p790
sg5
V12345 El Monte Rd, Los Altos Hills, CA
p791
sg7
I116206
ssVHampden-Sydney College
p792
(dp793
g3
VHampden-Sydney, VA
p794
sg5
VCollege Road, Hampden-Sydney, VA
p795
sg7
I762712
ssVMiddle Tennessee State University
p796
(dp797
g3
VMurfreesboro, TN
p798
sg5
V1301 East Main Street, Murfreesboro, TN
p799
sg7
I10167835
ssVUniversity of Maine
p800
(dp801
g3
VOrono, ME
p802
sg5
V168 College Avenue, Orono, ME
p803
sg7
I4300643
ssVSaddleback College
p804
(dp805
g3
VMission Viejo, CA
p806
sg5
V28000 Marguerite Pky, Mission Viejo, CA
p807
sg7
I270408
ssVColumbia University in the City of New York
p808
(dp809
g3
VNew York, NY
p810
sg5
VWest 116 St and Broadway, New York, NY
p811
sg7
I3790666
ssVUniversity of Massachusetts-Amherst
p812
(dp813
g3
VAmherst, MA
p814
sg5
V374 Whitmore Building 181 Presidents Drive, Amherst, MA
p815
sg7
I8556416
ssVCalifornia Polytechnic State University-San Luis Obispo
p816
(dp817
g3
VSan Luis Obispo, CA
p818
sg5
V1 Grand Ave., San Luis Obispo, CA
p819
sg7
I3571553
ssVUniversity of St Thomas
p820
(dp821
g3
VSaint Paul, MN
p822
sg5
V2115 Summit Ave, Saint Paul, MN
p823
sg7
I1138817
ssVGrambling State University
p824
(dp825
g3
VGrambling, LA
p826
sg5
V403 Main Street, Grambling, LA
p827
sg7
I3065502
ssVAzusa Pacific University
p828
(dp829
g3
VAzusa, CA
p830
sg5
V901 E Alosta, Azusa, CA
p831
sg7
I2416119
ssVEast Stroudsburg University of Pennsylvania
p832
(dp833
g3
VEast Stroudsburg, PA
p834
sg5
V200 Prospect Street, East Stroudsburg, PA
p835
sg7
I958286
ssVSimon Fraser University
p836
(dp837
g3
S''
p838
sg5
V8888 University Drive,, Burnaby, BC, V5A 1S6, Canada, 
p839
sg7
I983972
ssVSoutheastern Louisiana University
p840
(dp841
g3
VHammond, LA
p842
sg5
V548 Ned McGehee Ave., Hammond, LA
p843
sg7
I3829593
ssVSaint Ambrose University
p844
(dp845
g3
VDavenport, IA
p846
sg5
V518 W Locust St, Davenport, IA
p847
sg7
I1546972
ssVUnion College
p848
(dp849
g3
VSchenectady, NY
p850
sg5
V807 Union St, Schenectady, NY
p851
sg7
I603980
ssVTyler Junior College
p852
(dp853
g3
VTyler, TX
p854
sg5
V1400 East Fifth Street, Tyler, TX
p855
sg7
I664559
ssVFort Hays State University
p856
(dp857
g3
VHays, KS
p858
sg5
V600 Park St, Hays, KS
p859
sg7
I1482640
ssVAlderson Broaddus University
p860
(dp861
g3
VPhilippi, WV
p862
sg5
V101 College Hill Drive, Philippi, WV
p863
sg7
I1665166
ssVSouthern Oregon University
p864
(dp865
g3
VAshland, OR
p866
sg5
V1250 Siskiyou Blvd, Ashland, OR
p867
sg7
I1563367
ssVFerrum College
p868
(dp869
g3
VFerrum, VA
p870
sg5
V215 Ferrum Mountain Road, Ferrum, VA
p871
sg7
I474681
ssVFordham University
p872
(dp873
g3
VBronx, NY
p874
sg5
V441 E Fordham Rd, Bronx, NY
p875
sg7
I6003614
ssVTabor College
p876
(dp877
g3
VHillsboro, KS
p878
sg5
V400 S Jefferson, Hillsboro, KS
p879
sg7
I1393156
ssS'United States Air Force Academy'
p880
(dp881
g3
S'U.S. Air Force Academy, CO'
p882
sg5
S'2169 Field House Drive, U.S. Air Force Academy, CO'
p883
sg7
I13024301
ssVElmhurst College
p884
(dp885
g3
VElmhurst, IL
p886
sg5
V190 Prospect Ave, Elmhurst, IL
p887
sg7
I463238
ssVEl Camino Community College District
p888
(dp889
g3
VTorrance, CA
p890
sg5
V16007 Crenshaw Blvd, Torrance, CA
p891
sg7
I249765
ssVBucknell University
p892
(dp893
g3
VLewisburg, PA
p894
sg5
VOne Dent Drive, Lewisburg, PA
p895
sg7
I4594032
ssVPhoenix College
p896
(dp897
g3
VPhoenix, AZ
p898
sg5
V1202 W Thomas Rd, Phoenix, AZ
p899
sg7
I249401
ssVWesleyan University
p900
(dp901
g3
VMiddletown, CT
p902
sg5
V237 High St, Middletown, CT
p903
sg7
I573041
ssVWayland Baptist University
p904
(dp905
g3
VPlainview, TX
p906
sg5
V1900 W 7th St., Plainview, TX
p907
sg7
I1163862
ssVPima Community College
p908
(dp909
g3
VTucson, AZ
p910
sg5
V4905C East  Broadway Blvd., Tucson, AZ
p911
sg7
I401406
ssVKenyon College
p912
(dp913
g3
VGambier, OH
p914
sg5
VKenyon College, Gambier, OH
p915
sg7
I385583
ssVKing's College
p916
(dp917
g3
VWilkes-Barre, PA
p918
sg5
V133 N River St, Wilkes-Barre, PA
p919
sg7
I414428
ssVSterling College
p920
(dp921
g3
VSterling, KS
p922
sg5
V125 W. Cooper, Sterling, KS
p923
sg7
I1018994
ssVSusquehanna University
p924
(dp925
g3
VSelinsgrove, PA
p926
sg5
V514 University Ave, Selinsgrove, PA
p927
sg7
I398619
ssVFairleigh Dickinson University-College at Florham
p928
(dp929
g3
VMadison, NJ
p930
sg5
V285 Madison Ave, Madison, NJ
p931
sg7
I324245
ssVCollege of the Redwoods
p932
(dp933
g3
VEureka, CA
p934
sg5
V7351 Tompkins Hill Rd, Eureka, CA
p935
sg7
I134414
ssVIllinois State University
p936
(dp937
g3
VNormal, IL
p938
sg5
VNorth and School Streets, Normal, IL
p939
sg7
I4062137
ssVLawrence University
p940
(dp941
g3
VAppleton, WI
p942
sg5
V711 E. Boldt Way, Appleton, WI
p943
sg7
I330191
ssVAve Maria University
p944
(dp945
g3
VAve Maria, FL
p946
sg5
V5050 Ave Maria Blvd, Ave Maria, FL
p947
sg7
I805092
ssVLock Haven University
p948
(dp949
g3
VLock Haven, PA
p950
sg5
V401 North Fairview Street, Lock Haven, PA
p951
sg7
I817295
ssVItawamba Community College
p952
(dp953
g3
VFulton, MS
p954
sg5
V602 W Hill Street, Fulton, MS
p955
sg7
I591486
ssVColby College
p956
(dp957
g3
VWaterville, ME
p958
sg5
V4000 Mayflower Hill Drive, Waterville, ME
p959
sg7
I467401
ssVNorth Carolina State University at Raleigh
p960
(dp961
g3
VRaleigh, NC
p962
sg5
V2101 Hillsborough Street, Raleigh, NC
p963
sg7
I19194988
ssVLiberty University
p964
(dp965
g3
VLynchburg, VA
p966
sg5
V1971 University Blvd, Lynchburg, VA
p967
sg7
I10681263
ssVJames Madison University
p968
(dp969
g3
VHarrisonburg, VA
p970
sg5
V1041 S. Main Street, Harrisonburg, VA
p971
sg7
I8998446
ssVUniversity of Pennsylvania
p972
(dp973
g3
VPhiladelphia, PA
p974
sg5
V235 South 33rd street, Philadelphia, PA
p975
sg7
I2333826
ssVSaint Norbert College
p976
(dp977
g3
VDe Pere, WI
p978
sg5
V100 Grant St, De Pere, WI
p979
sg7
I440309
ssVTaylor University
p980
(dp981
g3
VUpland, IN
p982
sg5
V236 W Reade Ave, Upland, IN
p983
sg7
I1150726
ssVOccidental College
p984
(dp985
g3
VLos Angeles, CA
p986
sg5
V1600 Campus Rd, Los Angeles, CA
p987
sg7
I294885
ssVSouthern Methodist University
p988
(dp989
g3
VDallas, TX
p990
sg5
V6425 Boaz St, Dallas, TX
p991
sg7
I17267570
ssVMalone University
p992
(dp993
g3
VCanton, OH
p994
sg5
V2600 Cleveland Avenue NW, Canton, OH
p995
sg7
I1417083
ssVClaremont McKenna College
p996
(dp997
g3
VClaremont, CA
p998
sg5
V500 E 9th St, Claremont, CA
p999
sg7
I501156
ssVMcKendree University
p1000
(dp1001
g3
VLebanon, IL
p1002
sg5
V701 College Rd, Lebanon, IL
p1003
sg7
I1706546
ssVSimpson College
p1004
(dp1005
g3
VIndianola, IA
p1006
sg5
V701 North C St, Indianola, IA
p1007
sg7
I525858
ssVBelhaven University
p1008
(dp1009
g3
VJackson, MS
p1010
sg5
V1500 Peachtree St, Jackson, MS
p1011
sg7
I1726794
ssVWinston-Salem State University
p1012
(dp1013
g3
VWinston-Salem, NC
p1014
sg5
V601 Martin Luther King Jr Dr, Winston-Salem, NC
p1015
sg7
I1689904
ssVSouthwest Minnesota State University
p1016
(dp1017
g3
VMarshall, MN
p1018
sg5
V1501 State St, Marshall, MN
p1019
sg7
I797298
ssVTemple University
p1020
(dp1021
g3
VPhiladelphia, PA
p1022
sg5
V1801 North Broad Street, Philadelphia, PA
p1023
sg7
I18842502
ssVSaginaw Valley State University
p1024
(dp1025
g3
VUniversity Center, MI
p1026
sg5
V7400 Bay Rd, University Center, MI
p1027
sg7
I1542376
ssVWartburg College
p1028
(dp1029
g3
VWaverly, IA
p1030
sg5
V100 Wartburg Blvd., Waverly, IA
p1031
sg7
I406378
ssVBuena Vista University
p1032
(dp1033
g3
VStorm Lake, IA
p1034
sg5
V610 W 4th St, Storm Lake, IA
p1035
sg7
I399584
ssVMarist College
p1036
(dp1037
g3
VPoughkeepsie, NY
p1038
sg5
V3399 North Rd, Poughkeepsie, NY
p1039
sg7
I1186017
ssVTexas Tech University
p1040
(dp1041
g3
VLubbock, TX
p1042
sg5
VBroadway and University Avenue, Lubbock, TX
p1043
sg7
I18039499
ssVMissouri Western State University
p1044
(dp1045
g3
VSaint Joseph, MO
p1046
sg5
V4525 Downs Dr, Saint Joseph, MO
p1047
sg7
I1373782
ssVAuburn University
p1048
(dp1049
g3
VAuburn University, AL
p1050
sg5
VP.O. Box 351, Auburn University, AL
p1051
sg7
I41896336
ssVKentucky State University
p1052
(dp1053
g3
VFrankfort, KY
p1054
sg5
V400 East Main Street, Frankfort, KY
p1055
sg7
I858850
ssVDuquesne University
p1056
(dp1057
g3
VPittsburgh, PA
p1058
sg5
VAdministration Bldg 600 Forbes Ave, Pittsburgh, PA
p1059
sg7
I2988070
ssVDoane University-Arts & Sciences
p1060
(dp1061
g3
VCrete, NE
p1062
sg5
V1014 Boswell Avenue, Crete, NE
p1063
sg7
I1175537
ssVUniversity of Wisconsin-Eau Claire
p1064
(dp1065
g3
VEau Claire, WI
p1066
sg5
V105 Garfield Avenue, Eau Claire, WI
p1067
sg7
I680298
ssVUniversity of Northern Iowa
p1068
(dp1069
g3
VCedar Falls, IA
p1070
sg5
V1227 W 27th St, Cedar Falls, IA
p1071
sg7
I3631109
ssVCheyney University of Pennsylvania
p1072
(dp1073
g3
VCheyney, PA
p1074
sg5
V1837 University Circle, Cheyney, PA
p1075
sg7
I456591
ssVMorningside College
p1076
(dp1077
g3
VSioux City, IA
p1078
sg5
V1501 Morningside Ave, Sioux City, IA
p1079
sg7
I1208219
ssVEureka College
p1080
(dp1081
g3
VEureka, IL
p1082
sg5
V300 E. College Avenue, Eureka, IL
p1083
sg7
I244571
ssVUniversity of Richmond
p1084
(dp1085
g3
VUniversity of Richmond, VA
p1086
sg5
V28 Westhampton Way, University of Richmond, VA
p1087
sg7
I6794504
ssVConcordia University-Chicago
p1088
(dp1089
g3
VRiver Forest, IL
p1090
sg5
V7400 Augusta, River Forest, IL
p1091
sg7
I431619
ssVHocking College
p1092
(dp1093
g3
VNelsonville, OH
p1094
sg5
V3301 Hocking Parkway, Nelsonville, OH
p1095
sg7
I58466
ssVUniversity of Mary Hardin-Baylor
p1096
(dp1097
g3
VBelton, TX
p1098
sg5
V900 College St, Belton, TX
p1099
sg7
I1163282
ssVNorth Greenville University
p1100
(dp1101
g3
VTigerville, SC
p1102
sg5
V7801 N. Tigerville Road, Tigerville, SC
p1103
sg7
I1142859
ssVSUNY College of Technology at Alfred
p1104
(dp1105
g3
VAlfred, NY
p1106
sg5
V10 Upper College Drive, Alfred, NY
p1107
sg7
I304633
ssVUniversity of Wisconsin-Oshkosh
p1108
(dp1109
g3
VOshkosh, WI
p1110
sg5
V800 Algoma Blvd, Oshkosh, WI
p1111
sg7
I483425
ssVBoise State University
p1112
(dp1113
g3
VBoise, ID
p1114
sg5
V1910 University Dr, Boise, ID
p1115
sg7
I9712566
ssVCalifornia Lutheran University
p1116
(dp1117
g3
VThousand Oaks, CA
p1118
sg5
V60 W Olsen Rd, Thousand Oaks, CA
p1119
sg7
I507910
ssVPeru State College
p1120
(dp1121
g3
VPeru, NE
p1122
sg5
V600 Hoyt Street, Peru, NE
p1123
sg7
I468420
ssVSouthwestern Oklahoma State University
p1124
(dp1125
g3
VWeatherford, OK
p1126
sg5
V100 Campus Dr, Weatherford, OK
p1127
sg7
I1216312
ssVIowa Western Community College
p1128
(dp1129
g3
VCouncil Bluffs, IA
p1130
sg5
V2700 College Rd, Council Bluffs, IA
p1131
sg7
I745382
ssVUniversity of Nebraska-Lincoln
p1132
(dp1133
g3
VLincoln, NE
p1134
sg5
V14th and R St, Lincoln, NE
p1135
sg7
I27493962
ssVPurdue University-Main Campus
p1136
(dp1137
g3
VWest Lafayette, IN
p1138
sg5
VHovde Hall of Administration, West Lafayette, IN
p1139
sg7
I16885714
ssVEdward Waters College
p1140
(dp1141
g3
VJacksonville, FL
p1142
sg5
V1658 Kings Rd, Jacksonville, FL
p1143
sg7
I455620
ssVWestfield State University
p1144
(dp1145
g3
VWestfield, MA
p1146
sg5
V577 Western Ave, Westfield, MA
p1147
sg7
I170701
ssVDelta State University
p1148
(dp1149
g3
VCleveland, MS
p1150
sg5
V1003 W Sunflower Road, Cleveland, MS
p1151
sg7
I1341188
ssVGeorgetown University
p1152
(dp1153
g3
VWashington, DC
p1154
sg5
V37th and O St NW, Washington, DC
p1155
sg7
I1822896
ssVMcDaniel College
p1156
(dp1157
g3
VWestminster, MD
p1158
sg5
V2 College Hill, Westminster, MD
p1159
sg7
I487366
ssVEast Central University
p1160
(dp1161
g3
VAda, OK
p1162
sg5
V1100 E. 14th Street, Ada, OK
p1163
sg7
I876574
ssVUniversity of Alabama at Birmingham
p1164
(dp1165
g3
VBirmingham, AL
p1166
sg5
VAdministration Bldg Suite 1070, Birmingham, AL
p1167
sg7
I323497
ssVUniversity of Pikeville
p1168
(dp1169
g3
VPikeville, KY
p1170
sg5
V147 Sycamore St, Pikeville, KY
p1171
sg7
I1373137
ssVHiram College
p1172
(dp1173
g3
VHiram, OH
p1174
sg5
VPO Box 1808, Hiram, OH
p1175
sg7
I334754
ssVEast Tennessee State University
p1176
(dp1177
g3
VJohnson City, TN
p1178
sg5
V1276 Gilbreath Drive, Johnson City, TN
p1179
sg7
I3190769
ssVUniversity of Central Oklahoma
p1180
(dp1181
g3
VEdmond, OK
p1182
sg5
V100 N University Dr, Edmond, OK
p1183
sg7
I1548709
ssVOklahoma Panhandle State University
p1184
(dp1185
g3
VGoodwell, OK
p1186
sg5
V323 Eagle Ave, Goodwell, OK
p1187
sg7
I723441
ssVNorthwestern State University of Louisiana
p1188
(dp1189
g3
VNatchitoches, LA
p1190
sg5
VUniversity Parkway, Natchitoches, LA
p1191
sg7
I3035971
ssVFinlandia University
p1192
(dp1193
g3
VHancock, MI
p1194
sg5
V601 Quincy St, Hancock, MI
p1195
sg7
I362524
ssVHumboldt State University
p1196
(dp1197
g3
VArcata, CA
p1198
sg5
V1 Harpst Street, Arcata, CA
p1199
sg7
I1247965
ssVNortheast Mississippi Community College
p1200
(dp1201
g3
VBooneville, MS
p1202
sg5
V101 Cunningham Blvd, Booneville, MS
p1203
sg7
I625774
ssVUniversity of California-Berkeley
p1204
(dp1205
g3
VBerkeley, CA
p1206
sg5
V200 California Hall, Berkeley, CA
p1207
sg7
I22079265
ssVLimestone College
p1208
(dp1209
g3
VGaffney, SC
p1210
sg5
V1115 College Drive, Gaffney, SC
p1211
sg7
I1551357
ssVGeorgia State University
p1212
(dp1213
g3
VAtlanta, GA
p1214
sg5
V33 Gilmer St, Atlanta, GA
p1215
sg7
I6237189
ssVWestern New Mexico University
p1216
(dp1217
g3
VSilver City, NM
p1218
sg5
V1000 W. College Ave, Silver City, NM
p1219
sg7
I567559
ssVBryant University
p1220
(dp1221
g3
VSmithfield, RI
p1222
sg5
V1150 Douglas Pike, Smithfield, RI
p1223
sg7
I3568165
ssVUniversity of Nevada-Las Vegas
p1224
(dp1225
g3
VLas Vegas, NV
p1226
sg5
V4505 S Maryland Pky, Las Vegas, NV
p1227
sg7
I9359657
ssVCarson-Newman University
p1228
(dp1229
g3
VJefferson City, TN
p1230
sg5
V1646 S Russell Ave, Jefferson City, TN
p1231
sg7
I1609288
ssVValdosta State University
p1232
(dp1233
g3
VValdosta, GA
p1234
sg5
V1500 N Patterson St, Valdosta, GA
p1235
sg7
I1465334
ssVOttawa University-Ottawa
p1236
(dp1237
g3
VOttawa, KS
p1238
sg5
V1001 South Cedar, Ottawa, KS
p1239
sg7
I1201177
ssVCulver-Stockton College
p1240
(dp1241
g3
VCanton, MO
p1242
sg5
VOne College Hill, Canton, MO
p1243
sg7
I1130485
ssVOld Dominion University
p1244
(dp1245
g3
VNorfolk, VA
p1246
sg5
V5115 Hampton Blvd, Norfolk, VA
p1247
sg7
I9634722
ssVUniversity of South Carolina-Columbia
p1248
(dp1249
g3
VColumbia, SC
p1250
sg5
VColumbia-Campus, Columbia, SC
p1251
sg7
I29970031
ssVFranklin and Marshall College
p1252
(dp1253
g3
VLancaster, PA
p1254
sg5
VCollege Ave, Lancaster, PA
p1255
sg7
I472782
ssVWalsh University
p1256
(dp1257
g3
VNorth Canton, OH
p1258
sg5
V2020 East Maple St, North Canton, OH
p1259
sg7
I1597466
ssVNassau Community College
p1260
(dp1261
g3
VGarden City, NY
p1262
sg5
VOne Education Dr, Garden City, NY
p1263
sg7
I193416
ssVEastern Michigan University
p1264
(dp1265
g3
VYpsilanti, MI
p1266
sg5
V202 Welch Hall, Ypsilanti, MI
p1267
sg7
I7365948
ssVSUNY College at Brockport
p1268
(dp1269
g3
VBrockport, NY
p1270
sg5
V350 New Campus Dr, Brockport, NY
p1271
sg7
I344679
ssVMinnesota West Community and Technical College
p1272
(dp1273
g3
VGranite Falls, MN
p1274
sg5
V1593 11th Ave, Granite Falls, MN
p1275
sg7
I65274
ssVTexas A & M University-Kingsville
p1276
(dp1277
g3
VKingsville, TX
p1278
sg5
V955 University Blvd, Kingsville, TX
p1279
sg7
I1594376
ssVUniversity of Pittsburgh-Pittsburgh Campus
p1280
(dp1281
g3
VPittsburgh, PA
p1282
sg5
V4200 Fifth Avenue, Pittsburgh, PA
p1283
sg7
I23129559
ssVWisconsin Lutheran College
p1284
(dp1285
g3
VMilwaukee, WI
p1286
sg5
V8800 W Bluemound Rd, Milwaukee, WI
p1287
sg7
I372122
ssVAdams State University
p1288
(dp1289
g3
VAlamosa, CO
p1290
sg5
V208 Edgemont Blvd, Alamosa, CO
p1291
sg7
I915887
ssVLackawanna College
p1292
(dp1293
g3
VScranton, PA
p1294
sg5
V501 Vine St, Scranton, PA
p1295
sg7
I629898
ssVStanford University
p1296
(dp1297
g3
VStanford, CA
p1298
sg5
V450 Serra Mall, Stanford, CA
p1299
sg7
I23724407
ssVLouisburg College
p1300
(dp1301
g3
VLouisburg, NC
p1302
sg5
V501 N. Main St., Louisburg, NC
p1303
sg7
I225112
ssVMinot State University
p1304
(dp1305
g3
VMinot, ND
p1306
sg5
V500 University Ave W, Minot, ND
p1307
sg7
I938528
ssVTuskegee University
p1308
(dp1309
g3
VTuskegee, AL
p1310
sg5
VKresge Center, 3rd Floor, Tuskegee, AL
p1311
sg7
I2040605
ssVLos Angeles Harbor College
p1312
(dp1313
g3
VWilmington, CA
p1314
sg5
V1111 Figueroa Place, Wilmington, CA
p1315
sg7
I95039
ssVShenandoah University
p1316
(dp1317
g3
VWinchester, VA
p1318
sg5
V1460 University Dr, Winchester, VA
p1319
sg7
I511290
ssVColorado School of Mines
p1320
(dp1321
g3
VGolden, CO
p1322
sg5
V1500 Illinois St, Golden, CO
p1323
sg7
I1674819
ssVOrange Coast College
p1324
(dp1325
g3
VCosta Mesa, CA
p1326
sg5
V2701 Fairview Road, Costa Mesa, CA
p1327
sg7
I161832
ssVWilliam Paterson University of New Jersey
p1328
(dp1329
g3
VWayne, NJ
p1330
sg5
V300 Pompton Rd, Wayne, NJ
p1331
sg7
I407546
ssVShorter University
p1332
(dp1333
g3
VRome, GA
p1334
sg5
V315 Shorter Ave, Rome, GA
p1335
sg7
I1448878
ssVTennessee Technological University
p1336
(dp1337
g3
VCookeville, TN
p1338
sg5
V1 William L. Jones Drive, Cookeville, TN
p1339
sg7
I3553617
ssVEl Camino College-Compton Center
p1340
(dp1341
g3
VCompton, CA
p1342
sg5
V1111 East Artesia Blvd., Compton, CA
p1343
sg7
I53343
ssVCoastal Carolina University
p1344
(dp1345
g3
VConway, SC
p1346
sg5
V103 Tom Trout Drive, Conway, SC
p1347
sg7
I5933002
ssVBerry College
p1348
(dp1349
g3
VMount Berry, GA
p1350
sg5
V2277 Martha Berry Hwy NW, Mount Berry, GA
p1351
sg7
I715798
ssVSUNY at Albany
p1352
(dp1353
g3
VAlbany, NY
p1354
sg5
V1400 Washington Avenue, Albany, NY
p1355
sg7
I4015909
ssVLamar University
p1356
(dp1357
g3
VBeaumont, TX
p1358
sg5
V4400 MLK Blvd, Beaumont, TX
p1359
sg7
I3985871
ssVEllsworth Community College
p1360
(dp1361
g3
VIowa Falls, IA
p1362
sg5
V1100 College Ave, Iowa Falls, IA
p1363
sg7
I347562
ssVLindsey Wilson College
p1364
(dp1365
g3
VColumbia, KY
p1366
sg5
V210 Lindsey Wilson St, Columbia, KY
p1367
sg7
I1431942
ssVKansas Wesleyan University
p1368
(dp1369
g3
VSalina, KS
p1370
sg5
V100 E. Claflin Ave., Salina, KS
p1371
sg7
I805572
ssVNorthern Illinois University
p1372
(dp1373
g3
VDekalb, IL
p1374
sg5
V1425 W. Lincoln Hwy., Dekalb, IL
p1375
sg7
I9202985
ssVUniversity of Southern California
p1376
(dp1377
g3
VLos Angeles, CA
p1378
sg5
VUniversity Park, Los Angeles, CA
p1379
sg7
I31186065
ssVTexas Christian University
p1380
(dp1381
g3
VFort Worth, TX
p1382
sg5
V2800 S University Dr, Fort Worth, TX
p1383
sg7
I33471085
ssVWest Los Angeles College
p1384
(dp1385
g3
VCulver City, CA
p1386
sg5
V9000 Overland Avenue, Culver City, CA
p1387
sg7
I83502
ssVSouth Carolina State University
p1388
(dp1389
g3
VOrangeburg, SC
p1390
sg5
V300 College St NE, Orangeburg, SC
p1391
sg7
I2493789
ssVKean University
p1392
(dp1393
g3
VUnion, NJ
p1394
sg5
V1000 Morris Avenue, Union, NJ
p1395
sg7
I332730
ssVMidland University
p1396
(dp1397
g3
VFremont, NE
p1398
sg5
V900 N. Clarkson, Fremont, NE
p1399
sg7
I2170888
ssVArizona Western College
p1400
(dp1401
g3
VYuma, AZ
p1402
sg5
V2020 S. Avenue 8E, Yuma, AZ
p1403
sg7
I660894
ssVMayville State University
p1404
(dp1405
g3
VMayville, ND
p1406
sg5
V330 Third Street NE, Mayville, ND
p1407
sg7
I466040
ssVCumberland University
p1408
(dp1409
g3
VLebanon, TN
p1410
sg5
V1 Cumberland Square, Lebanon, TN
p1411
sg7
I1237154
ssVFitchburg State University
p1412
(dp1413
g3
VFitchburg, MA
p1414
sg5
V160 Pearl St, Fitchburg, MA
p1415
sg7
I143600
ssVCollege of the Canyons
p1416
(dp1417
g3
VSanta Clarita, CA
p1418
sg5
V26455 Rockwell Canyon Rd, Santa Clarita, CA
p1419
sg7
I105325
ssVUniversity of Southern Mississippi
p1420
(dp1421
g3
VHattiesburg, MS
p1422
sg5
V118 College Drive # 0001, Hattiesburg, MS
p1423
sg7
I8642689
ssVUniversity of Dubuque
p1424
(dp1425
g3
VDubuque, IA
p1426
sg5
V2000 University Ave, Dubuque, IA
p1427
sg7
I518001
ssVShaw University
p1428
(dp1429
g3
VRaleigh, NC
p1430
sg5
V118 East South Street, Raleigh, NC
p1431
sg7
I892840
ssVPearl River Community College
p1432
(dp1433
g3
VPoplarville, MS
p1434
sg5
V101 Hwy 11 N, Poplarville, MS
p1435
sg7
I662963
ssVSalve Regina University
p1436
(dp1437
g3
VNewport, RI
p1438
sg5
V100 Ochre Point Avenue, Newport, RI
p1439
sg7
I273860
ssVSanta Rosa Junior College
p1440
(dp1441
g3
VSanta Rosa, CA
p1442
sg5
V1501 Mendocino Avenue, Santa Rosa, CA
p1443
sg7
I130238
ssVGrinnell College
p1444
(dp1445
g3
VGrinnell, IA
p1446
sg5
V1121 Park Street, Grinnell, IA
p1447
sg7
I226499
ssVModesto Junior College
p1448
(dp1449
g3
VModesto, CA
p1450
sg5
V435 College Ave, Modesto, CA
p1451
sg7
I145238
ssVHuntingdon College
p1452
(dp1453
g3
VMontgomery, AL
p1454
sg5
V1500 East Fairview Avenue, Montgomery, AL
p1455
sg7
I710100
ssVSaint Xavier University
p1456
(dp1457
g3
VChicago, IL
p1458
sg5
V3700 W 103rd St, Chicago, IL
p1459
sg7
I2178040
ssVBates College
p1460
(dp1461
g3
VLewiston, ME
p1462
sg5
V2 Andrews Road, Lewiston, ME
p1463
sg7
I532185
ssVNorthwood University-Michigan
p1464
(dp1465
g3
VMidland, MI
p1466
sg5
V4000 Whiting Dr, Midland, MI
p1467
sg7
I1900212
ssVSan Diego State University
p1468
(dp1469
g3
VSan Diego, CA
p1470
sg5
V5500 Campanile Dr, San Diego, CA
p1471
sg7
I14133825
ssVUniversity of Wisconsin-River Falls
p1472
(dp1473
g3
VRiver Falls, WI
p1474
sg5
V410 S 3rd St, River Falls, WI
p1475
sg7
I353780
ssVVictor Valley College
p1476
(dp1477
g3
VVictorville, CA
p1478
sg5
V18422 Bear Valley Rd, Victorville, CA
p1479
sg7
I124296
ssVRobert Morris University Illinois
p1480
(dp1481
g3
VChicago, IL
p1482
sg5
V401 S State Street, Chicago, IL
p1483
sg7
I2857106
ssVBenedictine University
p1484
(dp1485
g3
VLisle, IL
p1486
sg5
V5700 College Rd, Lisle, IL
p1487
sg7
I559293
ssVNorth Carolina A & T State University
p1488
(dp1489
g3
VGreensboro, NC
p1490
sg5
V1601 E Market  St, Greensboro, NC
p1491
sg7
I2954798
ssVUniversity of Utah
p1492
(dp1493
g3
VSalt Lake City, UT
p1494
sg5
V201 Presidents Circle, ROOM 201, Salt Lake City, UT
p1495
sg7
I22044668
ssVCity College of San Francisco
p1496
(dp1497
g3
VSan Francisco, CA
p1498
sg5
V50 Phelan Ave, San Francisco, CA
p1499
sg7
I68564
ssVUniversity of Oklahoma-Norman Campus
p1500
(dp1501
g3
VNorman, OK
p1502
sg5
V660 Parrington Oval, Norman, OK
p1503
sg7
I35854266
ssVMcNeese State University
p1504
(dp1505
g3
VLake Charles, LA
p1506
sg5
V4205 Ryan St, Lake Charles, LA
p1507
sg7
I3333792
ssVWofford College
p1508
(dp1509
g3
VSpartanburg, SC
p1510
sg5
V429 N Church St, Spartanburg, SC
p1511
sg7
I4567884
ssVStony Brook University
p1512
(dp1513
g3
VStony Brook, NY
p1514
sg5
V310 Administration Building, Stony Brook, NY
p1515
sg7
I5504373
ssVCornell College
p1516
(dp1517
g3
VMount Vernon, IA
p1518
sg5
V600 First St. SW, Mount Vernon, IA
p1519
sg7
I338664
ssVCentre College
p1520
(dp1521
g3
VDanville, KY
p1522
sg5
V600 W Walnut St, Danville, KY
p1523
sg7
I408838
ssVEast Central Community College
p1524
(dp1525
g3
VDecatur, MS
p1526
sg5
V15738 Highway 15, P.O. Box 129, Decatur, MS
p1527
sg7
I758616
ssVRidgewater College
p1528
(dp1529
g3
VWillmar, MN
p1530
sg5
V2101 15th Ave NW, Willmar, MN
p1531
sg7
I63179
ssVStonehill College
p1532
(dp1533
g3
VEaston, MA
p1534
sg5
V320 Washington Street, Easton, MA
p1535
sg7
I1222271
ssVUniversity of West Alabama
p1536
(dp1537
g3
VLivingston, AL
p1538
sg5
VStation One, Livingston, AL
p1539
sg7
I2035422
ssVAlabama State University
p1540
(dp1541
g3
VMontgomery, AL
p1542
sg5
V915 S Jackson Street, Montgomery, AL
p1543
sg7
I2944115
ssVMarietta College
p1544
(dp1545
g3
VMarietta, OH
p1546
sg5
V215 Fifth Street, Marietta, OH
p1547
sg7
I287277
ssVIndiana University-Bloomington
p1548
(dp1549
g3
VBloomington, IN
p1550
sg5
V107 South Indiana Ave., Bloomington, IN
p1551
sg7
I24233472
ssVEastern Illinois University
p1552
(dp1553
g3
VCharleston, IL
p1554
sg5
V600 Lincoln Avenue, Charleston, IL
p1555
sg7
I2523042
ssVUniversity of Mississippi
p1556
(dp1557
g3
VUniversity, MS
p1558
sg5
VPO Box 1848, University, MS
p1559
sg7
I29500677
ssVCarthage College
p1560
(dp1561
g3
VKenosha, WI
p1562
sg5
V2001 Alford Park Dr, Kenosha, WI
p1563
sg7
I653393
ssVUniversity of Charleston
p1564
(dp1565
g3
VCharleston, WV
p1566
sg5
V2300 MacCorkle Avenue,  SE, Charleston, WV
p1567
sg7
I1640241
ssVThomas More College
p1568
(dp1569
g3
VCrestview Hills, KY
p1570
sg5
V333 Thomas More Parkway, Crestview Hills, KY
p1571
sg7
I384581
ssVPlymouth State University
p1572
(dp1573
g3
VPlymouth, NH
p1574
sg5
V17 High Street, Plymouth, NH
p1575
sg7
I267914
ssVAntelope Valley College
p1576
(dp1577
g3
VLancaster, CA
p1578
sg5
V3041 West  Ave K, Lancaster, CA
p1579
sg7
I196132
ssVMesa Community College
p1580
(dp1581
g3
VMesa, AZ
p1582
sg5
V1833 W Southern Ave, Mesa, AZ
p1583
sg7
I306193
ssVGreenville College
p1584
(dp1585
g3
VGreenville, IL
p1586
sg5
V315 E. College Ave, Greenville, IL
p1587
sg7
I355176
ssVLafayette College
p1588
(dp1589
g3
VEaston, PA
p1590
sg5
VHigh St, Easton, PA
p1591
sg7
I5622993
ssVRensselaer Polytechnic Institute
p1592
(dp1593
g3
VTroy, NY
p1594
sg5
V110 8th St, Troy, NY
p1595
sg7
I566110
ssVNorth Dakota State University-Main Campus
p1596
(dp1597
g3
VFargo, ND
p1598
sg5
V1301  12th Avenue North, Fargo, ND
p1599
sg7
I4647923
ssVLos Angeles Valley College
p1600
(dp1601
g3
VValley Glen, CA
p1602
sg5
V5800 Fulton Avenue, Valley Glen, CA
p1603
sg7
I198746
ssVJacksonville University
p1604
(dp1605
g3
VJacksonville, FL
p1606
sg5
V2800 University Blvd N, Jacksonville, FL
p1607
sg7
I1324790
ssVMississippi Gulf Coast Community College
p1608
(dp1609
g3
VPerkinston, MS
p1610
sg5
V51 Main Street, Perkinston, MS
p1611
sg7
I680078
ssVSan Joaquin Delta College
p1612
(dp1613
g3
VStockton, CA
p1614
sg5
V5151 Pacific Ave, Stockton, CA
p1615
sg7
I195500
ssVCollege of the Sequoias
p1616
(dp1617
g3
VVisalia, CA
p1618
sg5
V915 S. Mooney Blvd, Visalia, CA
p1619
sg7
I88077
ssVDiablo Valley College
p1620
(dp1621
g3
VPleasant Hill, CA
p1622
sg5
V321 Golf Club Rd, Pleasant Hill, CA
p1623
sg7
I180403
ssVLinfield College-McMinnville Campus
p1624
(dp1625
g3
VMcMinnville, OR
p1626
sg5
V900 SE Baker Street, McMinnville, OR
p1627
sg7
I507016
ssVDixie State University
p1628
(dp1629
g3
VSaint George, UT
p1630
sg5
V225 S 700 E, Saint George, UT
p1631
sg7
I1214925
ssVSaint Josephs College
p1632
(dp1633
g3
VRensselaer, IN
p1634
sg5
V1498 South College Avenue, Rensselaer, IN
p1635
sg7
I1031104
ssVUniversity of Wisconsin-La Crosse
p1636
(dp1637
g3
VLa Crosse, WI
p1638
sg5
V1725 State St, La Crosse, WI
p1639
sg7
I362767
ssVWestern Connecticut State University
p1640
(dp1641
g3
VDanbury, CT
p1642
sg5
V181 White Street, Danbury, CT
p1643
sg7
I512365
ssVConcordia University-Ann Arbor
p1644
(dp1645
g3
VAnn Arbor, MI
p1646
sg5
V4090 Geddes Road, Ann Arbor, MI
p1647
sg7
I1036704
ssVFlorida State University
p1648
(dp1649
g3
VTallahassee, FL
p1650
sg5
V222 S. Copeland Street, Tallahassee, FL
p1651
sg7
I42457103
ssVMidwestern State University
p1652
(dp1653
g3
VWichita Falls, TX
p1654
sg5
V3410 Taft Blvd, Wichita Falls, TX
p1655
sg7
I1254904
ssVHoward University
p1656
(dp1657
g3
VWashington, DC
p1658
sg5
V2400 Sixth St NW, Washington, DC
p1659
sg7
I3958380
ssVUniversity of Sioux Falls
p1660
(dp1661
g3
VSioux Falls, SD
p1662
sg5
V1101 W 22nd St, Sioux Falls, SD
p1663
sg7
I1834615
ssVCornell University
p1664
(dp1665
g3
VIthaca, NY
p1666
sg5
V300 Day Hall, Ithaca, NY
p1667
sg7
I2267011
ssVBoston College
p1668
(dp1669
g3
VChestnut Hill, MA
p1670
sg5
V140 Commonwealth Avenue, Chestnut Hill, MA
p1671
sg7
I21347885
ssVVirginia Polytechnic Institute and State University
p1672
(dp1673
g3
VBlacksburg, VA
p1674
sg5
V210 Burruss Hall, 800 Drillfield Dr., Blacksburg, VA
p1675
sg7
I31150129
ssVUniversity of Hawaii at Manoa
p1676
(dp1677
g3
VHonolulu, HI
p1678
sg5
V2500 Campus Road, Hawaii Hall, Honolulu, HI
p1679
sg7
I11979786
ssVPasadena City College
p1680
(dp1681
g3
VPasadena, CA
p1682
sg5
V1570 E Colorado Blvd., Pasadena, CA
p1683
sg7
I175967
ssVConcordia College at Moorhead
p1684
(dp1685
g3
VMoorhead, MN
p1686
sg5
V901 S 8th St, Moorhead, MN
p1687
sg7
I503480
ssVPortland State University
p1688
(dp1689
g3
VPortland, OR
p1690
sg5
V724 SW Harrison, Portland, OR
p1691
sg7
I4132357
ssVQuincy University
p1692
(dp1693
g3
VQuincy, IL
p1694
sg5
V1800 College Ave, Quincy, IL
p1695
sg7
I1533783
ssVTexas Southern University
p1696
(dp1697
g3
VHouston, TX
p1698
sg5
V3100 Cleburne St, Houston, TX
p1699
sg7
I2974414
ssVAverett University
p1700
(dp1701
g3
VDanville, VA
p1702
sg5
V420 W Main St, Danville, VA
p1703
sg7
I440866
ssVBentley University
p1704
(dp1705
g3
VWaltham, MA
p1706
sg5
V175 Forest St, Waltham, MA
p1707
sg7
I1176939
ssVUniversity of Arkansas at Monticello
p1708
(dp1709
g3
VMonticello, AR
p1710
sg5
VHighway 425 South, Monticello, AR
p1711
sg7
I1154266
ssVVirginia State University
p1712
(dp1713
g3
VPetersburg, VA
p1714
sg5
V1 Hayden Drive, Petersburg, VA
p1715
sg7
I1179973
ssVSpringfield College
p1716
(dp1717
g3
VSpringfield, MA
p1718
sg5
V263 Alden St, Springfield, MA
p1719
sg7
I713742
ssVLake Erie College
p1720
(dp1721
g3
VPainesville, OH
p1722
sg5
V391 W Washington St, Painesville, OH
p1723
sg7
I1517124
ssVCrown College
p1724
(dp1725
g3
VSaint Bonifacius, MN
p1726
sg5
V8700 College View Drive, Saint Bonifacius, MN
p1727
sg7
I270511
ssVMarian University
p1728
(dp1729
g3
VIndianapolis, IN
p1730
sg5
V3200 Cold Spring Rd, Indianapolis, IN
p1731
sg7
I2287007
ssVDartmouth College
p1732
(dp1733
g3
VHanover, NH
p1734
sg5
V207 Parkhurst Hall, Hanover, NH
p1735
sg7
I4592602
ssVCatholic University of America
p1736
(dp1737
g3
VWashington, DC
p1738
sg5
V620 Michigan Avenue, NE, Washington, DC
p1739
sg7
I490202
ssVChaffey College
p1740
(dp1741
g3
VRancho Cucamonga, CA
p1742
sg5
V5885 Haven Ave, Rancho Cucamonga, CA
p1743
sg7
I228895
ssVCurry College
p1744
(dp1745
g3
VMilton, MA
p1746
sg5
V1071 Blue Hill Ave, Milton, MA
p1747
sg7
I317919
ssVArkansas Baptist College
p1748
(dp1749
g3
VLittle Rock, AR
p1750
sg5
V1621 Dr. Martin Luther King Drive, Little Rock, AR
p1751
sg7
I271594
ssVUniversity of Washington-Seattle Campus
p1752
(dp1753
g3
VSeattle, WA
p1754
sg5
V1400 NE Campus Parkway, Seattle, WA
p1755
sg7
I31811117
ssVWhittier College
p1756
(dp1757
g3
VWhittier, CA
p1758
sg5
V13406 E Philadelphia Street, Whittier, CA
p1759
sg7
I433511
ssVUniversity of Connecticut
p1760
(dp1761
g3
VStorrs, CT
p1762
sg5
V352 Mansfield Road, Storrs, CT
p1763
sg7
I16781226
ssVUniversity of Florida
p1764
(dp1765
g3
VGainesville, FL
p1766
sg5
VP O Box 14485, Gainesville, FL
p1767
sg7
I32048390
ssVRowan University
p1768
(dp1769
g3
VGlassboro, NJ
p1770
sg5
V201 Mullica Hill Road, Glassboro, NJ
p1771
sg7
I555805
ssVNortheastern State University
p1772
(dp1773
g3
VTahlequah, OK
p1774
sg5
V600 N Grand, Tahlequah, OK
p1775
sg7
I1338673
ssVOlivet College
p1776
(dp1777
g3
VOlivet, MI
p1778
sg5
V320 South Main Street, Olivet, MI
p1779
sg7
I761385
ssVNorthwest Missouri State University
p1780
(dp1781
g3
VMaryville, MO
p1782
sg5
V800 University Drive, Maryville, MO
p1783
sg7
I3031710
ssVUniversity of South Dakota
p1784
(dp1785
g3
VVermillion, SD
p1786
sg5
V414 E Clark St, Vermillion, SD
p1787
sg7
I3415555
ssVBluffton University
p1788
(dp1789
g3
VBluffton, OH
p1790
sg5
V1 University Drive, Bluffton, OH
p1791
sg7
I388451
ssVHope College
p1792
(dp1793
g3
VHolland, MI
p1794
sg5
V100 E. 8th Street, Suite 260, Holland, MI
p1795
sg7
I547298
ssVHudson Valley Community College
p1796
(dp1797
g3
VTroy, NY
p1798
sg5
V80 Vandenburgh Ave, Troy, NY
p1799
sg7
I84210
ssVAlcorn State University
p1800
(dp1801
g3
VAlcorn State, MS
p1802
sg5
V1000 ASU Dr Ste 359, Alcorn State, MS
p1803
sg7
I2523806
ssVLenoir-Rhyne University
p1804
(dp1805
g3
VHickory, NC
p1806
sg5
V625 7th Avenue NE, Hickory, NC
p1807
sg7
I2529108
ssVSouthwest Mississippi Community College
p1808
(dp1809
g3
VSummit, MS
p1810
sg5
V1156 College Dr, Summit, MS
p1811
sg7
I703578
ssVDe Anza College
p1812
(dp1813
g3
VCupertino, CA
p1814
sg5
V21250 Stevens Creek Blvd., Cupertino, CA
p1815
sg7
I163489
ssVLycoming College
p1816
(dp1817
g3
VWilliamsport, PA
p1818
sg5
V700 College Place, Williamsport, PA
p1819
sg7
I508328
ssVMonmouth University
p1820
(dp1821
g3
VWest Long Branch, NJ
p1822
sg5
V400 Cedar Ave, West Long Branch, NJ
p1823
sg7
I4546862
ssVFort Valley State University
p1824
(dp1825
g3
VFort Valley, GA
p1826
sg5
V1005 State University Dr, Fort Valley, GA
p1827
sg7
I549775
ssVWest Virginia University
p1828
(dp1829
g3
VMorgantown, WV
p1830
sg5
VStewart Hall, 1500 University Avenue, Morgantown, WV
p1831
sg7
I18531917
ssVVanderbilt University
p1832
(dp1833
g3
VNashville, TN
p1834
sg5
V2101 West End Avenue, Nashville, TN
p1835
sg7
I22154178
ssVUniversity of Iowa
p1836
(dp1837
g3
VIowa City, IA
p1838
sg5
V101 Jessup Hall, Iowa City, IA
p1839
sg7
I30150836
ssVGavilan College
p1840
(dp1841
g3
VGilroy, CA
p1842
sg5
V5055 Santa Teresa Blvd, Gilroy, CA
p1843
sg7
I107858
ssVNorthern Arizona University
p1844
(dp1845
g3
VFlagstaff, AZ
p1846
sg5
V1900 S. Knoles Dr, Babbitt Administrative Center, Room 200, Flagstaff, AZ
p1847
sg7
I3979369
ssVEdinboro University of Pennsylvania
p1848
(dp1849
g3
VEdinboro, PA
p1850
sg5
V219 Meadville Street, Edinboro, PA
p1851
sg7
I1189765
ssVUniversity of Jamestown
p1852
(dp1853
g3
VJamestown, ND
p1854
sg5
V608 6th St NE, Jamestown, ND
p1855
sg7
I849334
ssVBowie State University
p1856
(dp1857
g3
VBowie, MD
p1858
sg5
V14000 Jericho Park Rd, Bowie, MD
p1859
sg7
I950182
ssVIowa Central Community College
p1860
(dp1861
g3
VFort Dodge, IA
p1862
sg5
VOne Triton Circle, Fort Dodge, IA
p1863
sg7
I406668
ssVGuilford College
p1864
(dp1865
g3
VGreensboro, NC
p1866
sg5
V5800 W Friendly Avenue, Greensboro, NC
p1867
sg7
I523394
ssVNotre Dame College
p1868
(dp1869
g3
VCleveland, OH
p1870
sg5
V4545 College Rd, Cleveland, OH
p1871
sg7
I1554513
ssVThe University of Virginia's College at Wise
p1872
(dp1873
g3
VWise, VA
p1874
sg5
V1 College Avenue, Wise, VA
p1875
sg7
I1023807
ssVNewberry College
p1876
(dp1877
g3
VNewberry, SC
p1878
sg5
V2100 College St, Newberry, SC
p1879
sg7
I1562201
ssVSUNY College at Cortland
p1880
(dp1881
g3
VCortland, NY
p1882
sg5
VMiller Administration Building, Graham Avenue, Cortland, NY
p1883
sg7
I623264
ssVSouthwestern College
p1884
(dp1885
g3
VWinfield, KS
p1886
sg5
V100 College Street, Winfield, KS
p1887
sg7
I614411
ssVUniversity of Kentucky
p1888
(dp1889
g3
VLexington, KY
p1890
sg5
VSouth Limestone, Lexington, KY
p1891
sg7
I22309964
ssVUrbana University
p1892
(dp1893
g3
VUrbana, OH
p1894
sg5
V579 College Way, Urbana, OH
p1895
sg7
I1106902
ssVChapman University
p1896
(dp1897
g3
VOrange, CA
p1898
sg5
VOne University Dr., Orange, CA
p1899
sg7
I402580
ssVChadron State College
p1900
(dp1901
g3
VChadron, NE
p1902
sg5
V1000 Main St, Chadron, NE
p1903
sg7
I1320029
ssVJacksonville State University
p1904
(dp1905
g3
VJacksonville, AL
p1906
sg5
V700 Pelham Road North, Jacksonville, AL
p1907
sg7
I4131276
ssVRice University
p1908
(dp1909
g3
VHouston, TX
p1910
sg5
V6100 S Main, Houston, TX
p1911
sg7
I11650472
ssVWilliam Jewell College
p1912
(dp1913
g3
VLiberty, MO
p1914
sg5
V500 College Hill, Liberty, MO
p1915
sg7
I1768685
ssVDefiance College
p1916
(dp1917
g3
VDefiance, OH
p1918
sg5
V701 N Clinton, Defiance, OH
p1919
sg7
I336737
ssVLouisiana College
p1920
(dp1921
g3
VPineville, LA
p1922
sg5
V1140 College Dr, Pineville, LA
p1923
sg7
I643828
ssVUniversity of the Cumberlands
p1924
(dp1925
g3
VWilliamsburg, KY
p1926
sg5
V6191 College Station Drive, Williamsburg, KY
p1927
sg7
I880827
ssVGrand Valley State University
p1928
(dp1929
g3
VAllendale, MI
p1930
sg5
V1 Campus Dr, Allendale, MI
p1931
sg7
I2542734
ssVUniversity of Central Florida
p1932
(dp1933
g3
VOrlando, FL
p1934
sg5
V4000 Central Florida Blvd, Orlando, FL
p1935
sg7
I19254214
ssVLincoln University
p1936
(dp1937
g3
VJefferson City, MO
p1938
sg5
V820 Chestnut Street, Jefferson City, MO
p1939
sg7
I801836
ssVSamford University
p1940
(dp1941
g3
VBirmingham, AL
p1942
sg5
V800 Lakeshore Drive, Birmingham, AL
p1943
sg7
I5376738
ssVSt Olaf College
p1944
(dp1945
g3
VNorthfield, MN
p1946
sg5
V1520 St Olaf Ave, Northfield, MN
p1947
sg7
I319032
ssVTexas College
p1948
(dp1949
g3
VTyler, TX
p1950
sg5
V2404 N. Grand Avenue, Tyler, TX
p1951
sg7
I394853
ssVAssumption College
p1952
(dp1953
g3
VWorcester, MA
p1954
sg5
V500 Salisbury St, Worcester, MA
p1955
sg7
I1025929
ssVAlfred University
p1956
(dp1957
g3
VAlfred, NY
p1958
sg5
VOne Saxon Drive, Alfred, NY
p1959
sg7
I544570
ssVThaddeus Stevens College of Technology
p1960
(dp1961
g3
VLancaster, PA
p1962
sg5
V750 E King St, Lancaster, PA
p1963
sg7
I97420
ssVWest Virginia State University
p1964
(dp1965
g3
VInstitute, WV
p1966
sg5
VRte 25, Institute, WV
p1967
sg7
I1442834
ssVButler Community College
p1968
(dp1969
g3
VEl Dorado, KS
p1970
sg5
V901 S Haverhill Rd, El Dorado, KS
p1971
sg7
I986750
ssVManchester University
p1972
(dp1973
g3
VNorth Manchester, IN
p1974
sg5
V604 E. College Ave, North Manchester, IN
p1975
sg7
I271525
ssVBemidji State University
p1976
(dp1977
g3
VBemidji, MN
p1978
sg5
V1500 Birchmont Dr, Bemidji, MN
p1979
sg7
I832794
ssVYuba College
p1980
(dp1981
g3
VMarysville, CA
p1982
sg5
V2088 N Beale Rd, Marysville, CA
p1983
sg7
I55600
ssVHarvard University
p1984
(dp1985
g3
VCambridge, MA
p1986
sg5
VMassachusetts Hall, Cambridge, MA
p1987
sg7
I2783737
ssVReedley College
p1988
(dp1989
g3
VReedley, CA
p1990
sg5
V995 N Reed Ave, Reedley, CA
p1991
sg7
I271889
ssVNew Mexico Highlands University
p1992
(dp1993
g3
VLas Vegas, NM
p1994
sg5
VUniversity Ave, Las Vegas, NM
p1995
sg7
I771047
ssVHighland Community College
p1996
(dp1997
g3
VHighland, KS
p1998
sg5
V606 W Main, Highland, KS
p1999
sg7
I520653
ssVUniversity of Akron Main Campus
p2000
(dp2001
g3
VAkron, OH
p2002
sg5
V302 Buchtel Common, Akron, OH
p2003
sg7
I7473209
ssVHenderson State University
p2004
(dp2005
g3
VArkadelphia, AR
p2006
sg5
V1100 Henderson Street, Arkadelphia, AR
p2007
sg7
I1269991
ssVMuhlenberg College
p2008
(dp2009
g3
VAllentown, PA
p2010
sg5
V2400 Chew Street, Allentown, PA
p2011
sg7
I317482
ssVBowling Green State University-Main Campus
p2012
(dp2013
g3
VBowling Green, OH
p2014
sg5
V220 McFall Ctr, Bowling Green, OH
p2015
sg7
I6754237
ssVLos Angeles Pierce College
p2016
(dp2017
g3
VWoodland Hills, CA
p2018
sg5
V6201 Winnetka Ave, Woodland Hills, CA
p2019
sg7
I90790
ssVUniversity of Massachusetts-Dartmouth
p2020
(dp2021
g3
VNorth Dartmouth, MA
p2022
sg5
V285 Old Westport Rd, North Dartmouth, MA
p2023
sg7
I216714
ssVMoravian College
p2024
(dp2025
g3
VBethlehem, PA
p2026
sg5
V1200 Main St, Bethlehem, PA
p2027
sg7
I329953
ssVSouthern Illinois University-Carbondale
p2028
(dp2029
g3
VCarbondale, IL
p2030
sg5
VLincoln Drive, Carbondale, IL
p2031
sg7
I3834721
ssVGrossmont College
p2032
(dp2033
g3
VEl Cajon, CA
p2034
sg5
V8800 Grossmont College Dr, El Cajon, CA
p2035
sg7
I176591
ssVWaynesburg University
p2036
(dp2037
g3
VWaynesburg, PA
p2038
sg5
V51 W College St, Waynesburg, PA
p2039
sg7
I550566
ssVNebraska Wesleyan University
p2040
(dp2041
g3
VLincoln, NE
p2042
sg5
V5000 St Paul Ave, Lincoln, NE
p2043
sg7
I240748
ssVPittsburg State University
p2044
(dp2045
g3
VPittsburg, KS
p2046
sg5
V1701 S Broadway, Pittsburg, KS
p2047
sg7
I1813797
ssVFullerton College
p2048
(dp2049
g3
VFullerton, CA
p2050
sg5
V321 E Chapman Avenue, Fullerton, CA
p2051
sg7
I191580
ssVStillman College
p2052
(dp2053
g3
VTuscaloosa, AL
p2054
sg5
V3601 Stillman Boulevard, Tuscaloosa, AL
p2055
sg7
I584958
ssVSanta Barbara City College
p2056
(dp2057
g3
VSanta Barbara, CA
p2058
sg5
V721 Cliff Drive, Santa Barbara, CA
p2059
sg7
I241262
ssVUrsinus College
p2060
(dp2061
g3
VCollegeville, PA
p2062
sg5
V601 E. Main St, Collegeville, PA
p2063
sg7
I415838
ssVEarlham College
p2064
(dp2065
g3
VRichmond, IN
p2066
sg5
V801 National Rd West, Richmond, IN
p2067
sg7
I335150
ssVMidAmerica Nazarene University
p2068
(dp2069
g3
VOlathe, KS
p2070
sg5
V2030 E College Way, Olathe, KS
p2071
sg7
I1209341
ssVUniversity of Louisville
p2072
(dp2073
g3
VLouisville, KY
p2074
sg5
V2301 S 3rd St, Louisville, KY
p2075
sg7
I23428841
ssVCase Western Reserve University
p2076
(dp2077
g3
VCleveland, OH
p2078
sg5
V10900 Euclid Ave, Cleveland, OH
p2079
sg7
I435205
ssVMethodist University
p2080
(dp2081
g3
VFayetteville, NC
p2082
sg5
V5400 Ramsey St, Fayetteville, NC
p2083
sg7
I952018
ssVMississippi College
p2084
(dp2085
g3
VClinton, MS
p2086
sg5
V200 South Capitol Street, Clinton, MS
p2087
sg7
I1570593
ssVValley City State University
p2088
(dp2089
g3
VValley City, ND
p2090
sg5
V101 College St SW, Valley City, ND
p2091
sg7
I576564
ssVErie Community College
p2092
(dp2093
g3
VBuffalo, NY
p2094
sg5
V121 Ellicott St, Buffalo, NY
p2095
sg7
I195003
ssVUniversity of New Haven
p2096
(dp2097
g3
VWest Haven, CT
p2098
sg5
V300 Boston Post Road, West Haven, CT
p2099
sg7
I1456822
ssVKennesaw State University
p2100
(dp2101
g3
VKennesaw, GA
p2102
sg5
V1000 Chastain Rd, Kennesaw, GA
p2103
sg7
I3519293
ssVCentral Methodist University-College of Liberal Arts and Sciences
p2104
(dp2105
g3
VFayette, MO
p2106
sg5
V411 Central Methodist Square, Fayette, MO
p2107
sg7
I1259624
ssVFond du Lac Tribal and Community College
p2108
(dp2109
g3
VCloquet, MN
p2110
sg5
V2101 14th St, Cloquet, MN
p2111
sg7
I74574
ssVSeton Hill University
p2112
(dp2113
g3
VGreensburg, PA
p2114
sg5
V1 Seton Hill Drive, Greensburg, PA
p2115
sg7
I1724999
ssVPalomar College
p2116
(dp2117
g3
VSan Marcos, CA
p2118
sg5
V1140 W. Mission, San Marcos, CA
p2119
sg7
I210382
ssVUniversity of Minnesota-Duluth
p2120
(dp2121
g3
VDuluth, MN
p2122
sg5
V515 Darland Administration Bldg, Duluth, MN
p2123
sg7
I1433072
ssVUniversity of Minnesota-Twin Cities
p2124
(dp2125
g3
VMinneapolis, MN
p2126
sg5
V100 Church Street SE, Minneapolis, MN
p2127
sg7
I25542759
ssVUtah State University
p2128
(dp2129
g3
VLogan, UT
p2130
sg5
VOld Main Hill, Logan, UT
p2131
sg7
I8288817
ssVMacMurray College
p2132
(dp2133
g3
VJacksonville, IL
p2134
sg5
V447 East College Ave, Jacksonville, IL
p2135
sg7
I212561
ssVShasta College
p2136
(dp2137
g3
VRedding, CA
p2138
sg5
V11555 Old Oregon Trail, Redding, CA
p2139
sg7
I129575
ssVWarner University
p2140
(dp2141
g3
VLake Wales, FL
p2142
sg5
V13895 Hwy 27, Lake Wales, FL
p2143
sg7
I1090628
ssVAbilene Christian University
p2144
(dp2145
g3
VAbilene, TX
p2146
sg5
V109 Teague Special Events Center, Abilene, TX
p2147
sg7
I3388489
ssVCitrus College
p2148
(dp2149
g3
VGlendora, CA
p2150
sg5
V1000 W Foothill Blvd, Glendora, CA
p2151
sg7
I253139
ssVLaney College
p2152
(dp2153
g3
VOakland, CA
p2154
sg5
V900 Fallon Sreet, Oakland, CA
p2155
sg7
I186325
ssVCollege of the Siskiyous
p2156
(dp2157
g3
VWeed, CA
p2158
sg5
V800 College Ave, Weed, CA
p2159
sg7
I216978
ssVNorthwest Mississippi Community College
p2160
(dp2161
g3
VSenatobia, MS
p2162
sg5
V4975 Hwy 51 N, Senatobia, MS
p2163
sg7
I1068171
ssVUniversity of Dayton
p2164
(dp2165
g3
VDayton, OH
p2166
sg5
V300 College Park, Dayton, OH
p2167
sg7
I1092469
ssVOtterbein University
p2168
(dp2169
g3
VWesterville, OH
p2170
sg5
V1 South Grove Street, Westerville, OH
p2171
sg7
I415281
ssVShippensburg University of Pennsylvania
p2172
(dp2173
g3
VShippensburg, PA
p2174
sg5
V1871 Old Main Drive, Shippensburg, PA
p2175
sg7
I1024925
ssVSalisbury University
p2176
(dp2177
g3
VSalisbury, MD
p2178
sg5
V1101 Camden Ave, Salisbury, MD
p2179
sg7
I542728
ssVLuther College
p2180
(dp2181
g3
VDecorah, IA
p2182
sg5
V700 College Drive, Decorah, IA
p2183
sg7
I449051
ssVNorthern State University
p2184
(dp2185
g3
VAberdeen, SD
p2186
sg5
V1200 S Jay St, Aberdeen, SD
p2187
sg7
I1172807
ssVUniversity of South Alabama
p2188
(dp2189
g3
VMobile, AL
p2190
sg5
V307 N University Blvd, Mobile, AL
p2191
sg7
I9351047
ssVMercer University
p2192
(dp2193
g3
VMacon, GA
p2194
sg5
V1501 Mercer University Drive, Macon, GA
p2195
sg7
I4701680
ssVUpper Iowa University
p2196
(dp2197
g3
VFayette, IA
p2198
sg5
V605 Washington St, Fayette, IA
p2199
sg7
I1502230
ssVBakersfield College
p2200
(dp2201
g3
VBakersfield, CA
p2202
sg5
V1801 Panorama Dr, Bakersfield, CA
p2203
sg7
I298523
ssVCampbellsville University
p2204
(dp2205
g3
VCampbellsville, KY
p2206
sg5
V1 University Dr, Campbellsville, KY
p2207
sg7
I1174757
ssVCollege of the Desert
p2208
(dp2209
g3
VPalm Desert, CA
p2210
sg5
V43-500 Monterey Ave, Palm Desert, CA
p2211
sg7
I144895
ssVReinhardt University
p2212
(dp2213
g3
VWaleska, GA
p2214
sg5
V7300 Reinhardt Circle, Waleska, GA
p2215
sg7
I1416335
ssVMissouri Southern State University
p2216
(dp2217
g3
VJoplin, MO
p2218
sg5
V3950 E. Newman Road, Joplin, MO
p2219
sg7
I1421270
ssVLyon College
p2220
(dp2221
g3
VBatesville, AR
p2222
sg5
V2300 Highland Road, Batesville, AR
p2223
sg7
I1608510
ssVUniversity of West Georgia
p2224
(dp2225
g3
VCarrollton, GA
p2226
sg5
V1601 Maple St, Carrollton, GA
p2227
sg7
I1855087
ssS'United States Military Academy'
p2228
(dp2229
g3
S'West Point, NY'
p2230
sg5
S'700 Mills Rd, West Point, NY'
p2231
sg7
I10068282
ssVUniversity of Louisiana at Lafayette
p2232
(dp2233
g3
VLafayette, LA
p2234
sg5
V104 University Circle, Lafayette, LA
p2235
sg7
I7424084
ssVSUNY Buffalo State
p2236
(dp2237
g3
VBuffalo, NY
p2238
sg5
V1300 Elmwood Ave, Buffalo, NY
p2239
sg7
I300257
ssVMonterey Peninsula College
p2240
(dp2241
g3
VMonterey, CA
p2242
sg5
V980 Fremont St, Monterey, CA
p2243
sg7
I129917
ssVSaint John Fisher College
p2244
(dp2245
g3
VRochester, NY
p2246
sg5
V3690 East Ave, Rochester, NY
p2247
sg7
I529846
ssVMontana Tech of the University of Montana
p2248
(dp2249
g3
VButte, MT
p2250
sg5
V1300 W Park St, Butte, MT
p2251
sg7
I1481232
ssVDakota State University
p2252
(dp2253
g3
VMadison, SD
p2254
sg5
V820 N Washington Ave, Madison, SD
p2255
sg7
I491676
ssVBenedict College
p2256
(dp2257
g3
VColumbia, SC
p2258
sg5
V1600 Harden Street, Columbia, SC
p2259
sg7
I1349479
ssVEastern Kentucky University
p2260
(dp2261
g3
VRichmond, KY
p2262
sg5
V521 Lancaster Ave, Richmond, KY
p2263
sg7
I4359268
ssVChestnut Hill College
p2264
(dp2265
g3
VPhiladelphia, PA
p2266
sg5
V9601 Germantown Ave, Philadelphia, PA
p2267
sg7
I186201
ssVLaGrange College
p2268
(dp2269
g3
VLagrange, GA
p2270
sg5
V601 Broad Street, Lagrange, GA
p2271
sg7
I715518
ssVBridgewater State University
p2272
(dp2273
g3
VBridgewater, MA
p2274
sg5
V131 Summer Street, Bridgewater, MA
p2275
sg7
I114276
ssVMaranatha Baptist University
p2276
(dp2277
g3
VWatertown, WI
p2278
sg5
V745 West Main Street, Watertown, WI
p2279
sg7
I86269
ssVSewanee-The University of the South
p2280
(dp2281
g3
VSewanee, TN
p2282
sg5
V735 University Avenue, Sewanee, TN
p2283
sg7
I409228
ssVLIU Post
p2284
(dp2285
g3
VBrookville, NY
p2286
sg5
V720 Northern Blvd, Brookville, NY
p2287
sg7
I2327368
ssVMesabi Range College
p2288
(dp2289
g3
VVirginia, MN
p2290
sg5
V1001 Chestnut Street West, Virginia, MN
p2291
sg7
I61202
ssVSoutheastern Oklahoma State University
p2292
(dp2293
g3
VDurant, OK
p2294
sg5
V425 W University Boulevard, Durant, OK
p2295
sg7
I887051
ssVGlobe Institute of Technology
p2296
(dp2297
g3
VNew York, NY
p2298
sg5
V500 7th Ave, New York, NY
p2299
sg7
I383892
ssVFlorida International University
p2300
(dp2301
g3
VMiami, FL
p2302
sg5
V11200 S. W. 8 Street, Miami, FL
p2303
sg7
I7405444
ssVPrinceton University
p2304
(dp2305
g3
VPrinceton, NJ
p2306
sg5
V1 Nassau Hall, Princeton, NJ
p2307
sg7
I2818643
ssVSan Bernardino Valley College
p2308
(dp2309
g3
VSan Bernardino, CA
p2310
sg5
V701 South Mount Vernon Avenue, San Bernardino, CA
p2311
sg7
I102702
ssVVermilion Community College
p2312
(dp2313
g3
VEly, MN
p2314
sg5
V1900 East Camp Street, Ely, MN
p2315
sg7
I55110
ssVDickinson College
p2316
(dp2317
g3
VCarlisle, PA
p2318
sg5
VCollege and Louther Streets, Carlisle, PA
p2319
sg7
I360160
ssVChowan University
p2320
(dp2321
g3
VMurfreesboro, NC
p2322
sg5
VOne University Place, Murfreesboro, NC
p2323
sg7
I1444252
ssVValparaiso University
p2324
(dp2325
g3
VValparaiso, IN
p2326
sg5
VUS Highway 30 and Sturdy Road, Valparaiso, IN
p2327
sg7
I1111190
ssVCentral State University
p2328
(dp2329
g3
VWilberforce, OH
p2330
sg5
V1400 Brush Row Rd, Wilberforce, OH
p2331
sg7
I629180
ssVButler University
p2332
(dp2333
g3
VIndianapolis, IN
p2334
sg5
V4600 Sunset Ave, Indianapolis, IN
p2335
sg7
I834911
ssVCarnegie Mellon University
p2336
(dp2337
g3
VPittsburgh, PA
p2338
sg5
V5000 Forbes Avenue, Pittsburgh, PA
p2339
sg7
I612390
ssVFairmont State University
p2340
(dp2341
g3
VFairmont, WV
p2342
sg5
V1201 Locust Ave, Fairmont, WV
p2343
sg7
I1123768
ssVUniversity of North Carolina at Charlotte
p2344
(dp2345
g3
VCharlotte, NC
p2346
sg5
V9201 University City Blvd, Charlotte, NC
p2347
sg7
I8362740
ssVTruman State University
p2348
(dp2349
g3
VKirksville, MO
p2350
sg5
V100 E Normal Avenue, Kirksville, MO
p2351
sg7
I1217471
ssVUniversity of Wyoming
p2352
(dp2353
g3
VLaramie, WY
p2354
sg5
VCorner of Ninth and Ivinson, Laramie, WY
p2355
sg7
I9273851
ssVStephen F Austin State University
p2356
(dp2357
g3
VNacogdoches, TX
p2358
sg5
V2008 Alumin Drive, Rusk 206, Nacogdoches, TX
p2359
sg7
I3572996
ssVSouthwestern University
p2360
(dp2361
g3
VGeorgetown, TX
p2362
sg5
V1001 University Ave, Georgetown, TX
p2363
sg7
I738174
ssVHobart William Smith Colleges
p2364
(dp2365
g3
VGeneva, NY
p2366
sg5
V337 Pulteney Street, Geneva, NY
p2367
sg7
I460438
ssVMassachusetts Institute of Technology
p2368
(dp2369
g3
VCambridge, MA
p2370
sg5
V77 Massachusetts Avenue, Cambridge, MA
p2371
sg7
I196716
ssVSanta Monica College
p2372
(dp2373
g3
VSanta Monica, CA
p2374
sg5
V1900 Pico Blvd, Santa Monica, CA
p2375
sg7
I101643
ssVUniversity of Notre Dame
p2376
(dp2377
g3
VNotre Dame, IN
p2378
sg5
V400 Main Building, Notre Dame, IN
p2379
sg7
I38971302
ssVCabrillo College
p2380
(dp2381
g3
VAptos, CA
p2382
sg5
V6500 Soquel Dr, Aptos, CA
p2383
sg7
I74663
ssVOuachita Baptist University
p2384
(dp2385
g3
VArkadelphia, AR
p2386
sg5
V410 Ouachita St, Arkadelphia, AR
p2387
sg7
I1710909
ssVTarleton State University
p2388
(dp2389
g3
VStephenville, TX
p2390
sg5
V1333 W. Washington, Stephenville, TX
p2391
sg7
I1724813
ssVSoutheastern University
p2392
(dp2393
g3
VLakeland, FL
p2394
sg5
V1000 Longfellow Blvd, Lakeland, FL
p2395
sg7
I1363442
ssVIndiana University of Pennsylvania-Main Campus
p2396
(dp2397
g3
VIndiana, PA
p2398
sg5
V1011 South Dr 201 Sutton Hall, Indiana, PA
p2399
sg7
I1865060
ssVSouthern Virginia University
p2400
(dp2401
g3
VBuena Vista, VA
p2402
sg5
V1 University Hill Drive, Buena Vista, VA
p2403
sg7
I501847
ssVUniversity of Kansas
p2404
(dp2405
g3
VLawrence, KS
p2406
sg5
VStrong Hall, 1450 Jayhawk Blvd, Room 230, Lawrence, KS
p2407
sg7
I14011838
ssVUniversity of Saint Francis-Fort Wayne
p2408
(dp2409
g3
VFort Wayne, IN
p2410
sg5
V2701 Spring St, Fort Wayne, IN
p2411
sg7
I2694571
ssVFort Lewis College
p2412
(dp2413
g3
VDurango, CO
p2414
sg5
V1000 Rim Drive, Durango, CO
p2415
sg7
I1397815
ssVNorth Dakota State College of Science
p2416
(dp2417
g3
VWahpeton, ND
p2418
sg5
V800 N 6th St, Wahpeton, ND
p2419
sg7
I160397
ssVCisco College
p2420
(dp2421
g3
VCisco, TX
p2422
sg5
V101 College Heights, Cisco, TX
p2423
sg7
I473125
ssVThe College of Wooster
p2424
(dp2425
g3
VWooster, OH
p2426
sg5
V1189 Beall Avenue, Wooster, OH
p2427
sg7
I327903
ssVUniversity of California-Davis
p2428
(dp2429
g3
VDavis, CA
p2430
sg5
VOne Shields Avenue, Davis, CA
p2431
sg7
I4478087
ssVUniversity of Oregon
p2432
(dp2433
g3
VEugene, OR
p2434
sg5
V110 Johnson Hall, Eugene, OR
p2435
sg7
I23768207
ssVUniversity of Delaware
p2436
(dp2437
g3
VNewark, DE
p2438
sg5
V104 Hullihen Hall, Newark, DE
p2439
sg7
I6564268
ssVMiami University-Oxford
p2440
(dp2441
g3
VOxford, OH
p2442
sg5
V501 East High St, Oxford, OH
p2443
sg7
I7613028
ssVSul Ross State University
p2444
(dp2445
g3
VAlpine, TX
p2446
sg5
VHWY 90 East, Alpine, TX
p2447
sg7
I359642
ssVSaint Francis University
p2448
(dp2449
g3
VLoretto, PA
p2450
sg5
VP.O. Box 600, 117 Evergreen Drive, Loretto, PA
p2451
sg7
I2382721
ssVWilliam Penn University
p2452
(dp2453
g3
VOskaloosa, IA
p2454
sg5
V201 Trueblood Ave, Oskaloosa, IA
p2455
sg7
I1642856
ssVMuskingum University
p2456
(dp2457
g3
VNew Concord, OH
p2458
sg5
V163 Stormont Street, New Concord, OH
p2459
sg7
I341527
ssVCarroll University
p2460
(dp2461
g3
VWaukesha, WI
p2462
sg5
V100 N East Ave, Waukesha, WI
p2463
sg7
I226414
ssVMars Hill University
p2464
(dp2465
g3
VMars Hill, NC
p2466
sg5
V100 Athletic St, Mars Hill, NC
p2467
sg7
I1348265
ssVNew Mexico State University-Main Campus
p2468
(dp2469
g3
VLas Cruces, NM
p2470
sg5
V2850 Weddell Street, Las Cruces, NM
p2471
sg7
I7141189
ssVUniversity of Michigan-Ann Arbor
p2472
(dp2473
g3
VAnn Arbor, MI
p2474
sg5
V503 Thompson Street, Ann Arbor, MI
p2475
sg7
I36597583
ssVDuke University
p2476
(dp2477
g3
VDurham, NC
p2478
sg5
V103 Allen Bldg, Durham, NC
p2479
sg7
I23468721
ssVTufts University
p2480
(dp2481
g3
VMedford, MA
p2482
sg5
VTisch Sports & Fitness Center, 161 College Ave., Medford, MA
p2483
sg7
I423764
ssVAvila University
p2484
(dp2485
g3
VKansas City, MO
p2486
sg5
V11901 Wornall Rd, Kansas City, MO
p2487
sg7
I878792
ssVAshland University
p2488
(dp2489
g3
VAshland, OH
p2490
sg5
V401 College Avenue, Ashland, OH
p2491
sg7
I1829356
ssVUnited States Merchant Marine Academy
p2492
(dp2493
g3
VKings Point, NY
p2494
sg5
V300 Steamboat Rd, Kings Point, NY
p2495
sg7
I345578
ssVLangston University
p2496
(dp2497
g3
VLangston, OK
p2498
sg5
V102 Page Hall, Langston, OK
p2499
sg7
I693420
ssVUniversity of Georgia
p2500
(dp2501
g3
VAthens, GA
p2502
sg5
VAdministration Building, Athens, GA
p2503
sg7
I38884925
ssVWestern State Colorado University
p2504
(dp2505
g3
VGunnison, CO
p2506
sg5
V600 N Adams, Gunnison, CO
p2507
sg7
I1329890
ssVAugsburg College
p2508
(dp2509
g3
VMinneapolis, MN
p2510
sg5
V2211 Riverside Ave, Minneapolis, MN
p2511
sg7
I388794
ssVButte College
p2512
(dp2513
g3
VOroville, CA
p2514
sg5
V3536 Butte Campus Drive, Oroville, CA
p2515
sg7
I136824
ssVNicholls State University
p2516
(dp2517
g3
VThibodaux, LA
p2518
sg5
VUniversity Station  La Hwy 1, Thibodaux, LA
p2519
sg7
I2240060
ssVCarleton College
p2520
(dp2521
g3
VNorthfield, MN
p2522
sg5
VOne North College Street, Northfield, MN
p2523
sg7
I389978
ssVJones County Junior College
p2524
(dp2525
g3
VEllisville, MS
p2526
sg5
V900 South Court Street, Ellisville, MS
p2527
sg7
I963079
ssVMount Ida College
p2528
(dp2529
g3
VNewton, MA
p2530
sg5
V777 Dedham Street, Newton, MA
p2531
sg7
I760742
ssVWesley College
p2532
(dp2533
g3
VDover, DE
p2534
sg5
V120 N State St, Dover, DE
p2535
sg7
I428431
ssVArkansas State University-Main Campus
p2536
(dp2537
g3
VJonesboro, AR
p2538
sg5
V2105 E. Aggie Road, Jonesboro, AR
p2539
sg7
I6864360
ssVBloomsburg University of Pennsylvania
p2540
(dp2541
g3
VBloomsburg, PA
p2542
sg5
V400 E Second St, Bloomsburg, PA
p2543
sg7
I786335
ssVKalamazoo College
p2544
(dp2545
g3
VKalamazoo, MI
p2546
sg5
V1200 Academy St, Kalamazoo, MI
p2547
sg7
I445509
ssVDakota College at Bottineau
p2548
(dp2549
g3
VBottineau, ND
p2550
sg5
V105 Simrall Blvd, Bottineau, ND
p2551
sg7
I130325
ssVTexas A & M University-Commerce
p2552
(dp2553
g3
VCommerce, TX
p2554
sg5
V2600 South Neal, Commerce, TX
p2555
sg7
I1836333
ssVRipon College
p2556
(dp2557
g3
VRipon, WI
p2558
sg5
V300 West Seward Street, Ripon, WI
p2559
sg7
I135237
ssVThe University of Montana-Western
p2560
(dp2561
g3
VDillon, MT
p2562
sg5
V710 S Atlantic, Dillon, MT
p2563
sg7
I700744
ssVHamilton College
p2564
(dp2565
g3
VClinton, NY
p2566
sg5
V198 College Hill Rd, Clinton, NY
p2567
sg7
I579177
ssVCentral Washington University
p2568
(dp2569
g3
VEllensburg, WA
p2570
sg5
V400 East University Way, Ellensburg, WA
p2571
sg7
I1328019
ssVKnox College
p2572
(dp2573
g3
VGalesburg, IL
p2574
sg5
V2 E South St, Galesburg, IL
p2575
sg7
I275259
ssVOhio Wesleyan University
p2576
(dp2577
g3
VDelaware, OH
p2578
sg5
V61 S Sandusky Street, Delaware, OH
p2579
sg7
I438533
ssVSouthern Arkansas University Main Campus
p2580
(dp2581
g3
VMagnolia, AR
p2582
sg5
V100 E. University, Magnolia, AR
p2583
sg7
I931042
ssVLos Medanos College
p2584
(dp2585
g3
VPittsburg, CA
p2586
sg5
V2700 East Leland Road, Pittsburg, CA
p2587
sg7
I63080
ssVMonroe College
p2588
(dp2589
g3
VBronx, NY
p2590
sg5
V2501 Jerome Avenue, Bronx, NY
p2591
sg7
I1019866
ssVThe University of Texas at Austin
p2592
(dp2593
g3
VAustin, TX
p2594
sg5
V110 Inner Campus Drive, Austin, TX
p2595
sg7
I30268826
ssVUniversity of New Mexico-Main Campus
p2596
(dp2597
g3
VAlbuquerque, NM
p2598
sg5
V1700 Lomas Blvd NE, Albuquerque, NM
p2599
sg7
I9137178
ssVGustavus Adolphus College
p2600
(dp2601
g3
VSaint Peter, MN
p2602
sg5
V800 West College Avenue, Saint Peter, MN
p2603
sg7
I506131
ssVASA College
p2604
(dp2605
g3
VBrooklyn, NY
p2606
sg5
V81 Willoughby Street, Brooklyn, NY
p2607
sg7
I603273
ssVWashington State University
p2608
(dp2609
g3
VPullman, WA
p2610
sg5
VFrench Administration Building, Pullman, WA
p2611
sg7
I18430943
ssVUniversity of Houston
p2612
(dp2613
g3
VHouston, TX
p2614
sg5
V212 E. Cullen Building, Houston, TX
p2615
sg7
I16180918
ssVMisericordia University
p2616
(dp2617
g3
VDallas, PA
p2618
sg5
V301 Lake St, Dallas, PA
p2619
sg7
I285343
ssVTiffin University
p2620
(dp2621
g3
VTiffin, OH
p2622
sg5
V155 Miami Street, Tiffin, OH
p2623
sg7
I1429740
ssVWestern Carolina University
p2624
(dp2625
g3
VCullowhee, NC
p2626
sg5
VHighway 107, Cullowhee, NC
p2627
sg7
I2947478
ssVVirginia Military Institute
p2628
(dp2629
g3
VLexington, VA
p2630
sg5
VVMI Parade, Lexington, VA
p2631
sg7
I3439684
ssVCampbell University
p2632
(dp2633
g3
VBuies Creek, NC
p2634
sg5
V450 Leslie Campbell Ave, Buies Creek, NC
p2635
sg7
I1902775
ssVUniversity of Memphis
p2636
(dp2637
g3
VMemphis, TN
p2638
sg5
VSouthern Avenue, Memphis, TN
p2639
sg7
I14814121
ssVAlbany State University
p2640
(dp2641
g3
VAlbany, GA
p2642
sg5
V504 College Drive, Albany, GA
p2643
sg7
I846830
ssVUniversity of New Hampshire-Main Campus
p2644
(dp2645
g3
VDurham, NH
p2646
sg5
V105 Main St., Thompson Hall, Durham, NH
p2647
sg7
I4820879
ssVOlivet Nazarene University
p2648
(dp2649
g3
VBourbonnais, IL
p2650
sg5
VOne University Avenue, Bourbonnais, IL
p2651
sg7
I1413101
ssVWestern New England University
p2652
(dp2653
g3
VSpringfield, MA
p2654
sg5
V1215 Wilbraham Rd, Springfield, MA
p2655
sg7
I405255
ssVVentura College
p2656
(dp2657
g3
VVentura, CA
p2658
sg5
V4667 Telegraph Rd, Ventura, CA
p2659
sg7
I495352
ssVNorthwestern College
p2660
(dp2661
g3
VOrange City, IA
p2662
sg5
V101 Seventh St SW, Orange City, IA
p2663
sg7
I1026181
ssVUniversity of Illinois at Urbana-Champaign
p2664
(dp2665
g3
VChampaign, IL
p2666
sg5
V620 E John Street, Champaign, IL
p2667
sg7
I18242712
ssVLouisiana Tech University
p2668
(dp2669
g3
VRuston, LA
p2670
sg5
V305 Wisteria, Ruston, LA
p2671
sg7
I7448192
ssVThe University of Alabama
p2672
(dp2673
g3
VTuscaloosa, AL
p2674
sg5
V739 University Blvd, Tuscaloosa, AL
p2675
sg7
I56214376
ssVArizona State University-Tempe
p2676
(dp2677
g3
VTempe, AZ
p2678
sg5
VUniversity Drive and Mill Avenue, Tempe, AZ
p2679
sg7
I26601767
ssVWest Texas A & M University
p2680
(dp2681
g3
VCanyon, TX
p2682
sg5
V2501 4th Ave, Canyon, TX
p2683
sg7
I1567500
ssVCentral Connecticut State University
p2684
(dp2685
g3
VNew Britain, CT
p2686
sg5
V1615 Stanley St, New Britain, CT
p2687
sg7
I2544367
ssVWebber International University
p2688
(dp2689
g3
VBabson Park, FL
p2690
sg5
V1201 N Scenic Hwy, Babson Park, FL
p2691
sg7
I1453191
ssVThe University of Tennessee-Martin
p2692
(dp2693
g3
VMartin, TN
p2694
sg5
V544 University Street, Martin, TN
p2695
sg7
I2687398
ssVItasca Community College
p2696
(dp2697
g3
VGrand Rapids, MN
p2698
sg5
V1851 Hwy 169 East, Grand Rapids, MN
p2699
sg7
I86244
ssVUniversity of Mary
p2700
(dp2701
g3
VBismarck, ND
p2702
sg5
V7500 University Dr, Bismarck, ND
p2703
sg7
I1228082
ssVMinnesota State Community and Technical College
p2704
(dp2705
g3
VFergus Falls, MN
p2706
sg5
V1414 College Way, Fergus Falls, MN
p2707
sg7
I74871
ssVOhio University-Main Campus
p2708
(dp2709
g3
VAthens, OH
p2710
sg5
V020 Chubb Hall, Athens, OH
p2711
sg7
I9037911
ssVIndependence Community College
p2712
(dp2713
g3
VIndependence, KS
p2714
sg5
V1057 West College Avenue, Independence, KS
p2715
sg7
I477919
ssVArizona Christian University
p2716
(dp2717
g3
VPhoenix, AZ
p2718
sg5
V2625 E Cactus Rd, Phoenix, AZ
p2719
sg7
I1035939
ssVBrigham Young University-Provo
p2720
(dp2721
g3
VProvo, UT
p2722
sg5
VMain Campus, Provo, UT
p2723
sg7
I16627703
ssVConcord University
p2724
(dp2725
g3
VAthens, WV
p2726
sg5
V1000 Vermillion Street, Athens, WV
p2727
sg7
I1327475
ssVGeorgia Southern University
p2728
(dp2729
g3
VStatesboro, GA
p2730
sg5
VPO Box 8033, 1770 Southern Drive, Statesboro, GA
p2731
sg7
I5178378
ssVHastings College
p2732
(dp2733
g3
VHastings, NE
p2734
sg5
V710 N Turner Ave, Hastings, NE
p2735
sg7
I1233210
ssVMassachusetts Maritime Academy
p2736
(dp2737
g3
VBuzzards Bay, MA
p2738
sg5
V101 Academy Dr, Buzzards Bay, MA
p2739
sg7
I146651
ssVEast Los Angeles College
p2740
(dp2741
g3
VMonterey Park, CA
p2742
sg5
V1301 Avenida Cesar Chavez, Monterey Park, CA
p2743
sg7
I118271
ssVFurman University
p2744
(dp2745
g3
VGreenville, SC
p2746
sg5
V3300 Poinsett Highway, Greenville, SC
p2747
sg7
I6199004
ssVMaryville College
p2748
(dp2749
g3
VMaryville, TN
p2750
sg5
V502 E Lamar Alexander Pky, Maryville, TN
p2751
sg7
I471405
ssVSt Lawrence University
p2752
(dp2753
g3
VCanton, NY
p2754
sg5
V23 Romoda Drive, Canton, NY
p2755
sg7
I371803
ssVMissouri State University-Springfield
p2756
(dp2757
g3
VSpringfield, MO
p2758
sg5
V901 S National, Springfield, MO
p2759
sg7
I3561150
ssVCentral Lakes College-Brainerd
p2760
(dp2761
g3
VBrainerd, MN
p2762
sg5
V501 West College Drive, Brainerd, MN
p2763
sg7
I144536
ssVNorthland Community and Technical College
p2764
(dp2765
g3
VThief River Falls, MN
p2766
sg5
V1101 Hwy One East, Thief River Falls, MN
p2767
sg7
I60081
ssVThe Lincoln University
p2768
(dp2769
g3
VLincoln University, PA
p2770
sg5
V1570 Baltimore Pike, Lincoln University, PA
p2771
sg7
I570188
ssVCollege of the Holy Cross
p2772
(dp2773
g3
VWorcester, MA
p2774
sg5
VOne College Street, Worcester, MA
p2775
sg7
I5186151
ssVPacific Lutheran University
p2776
(dp2777
g3
VTacoma, WA
p2778
sg5
V1010 122nd St So, Tacoma, WA
p2779
sg7
I371751
ssVFlorida Agricultural and Mechanical University
p2780
(dp2781
g3
VTallahassee, FL
p2782
sg5
V1500 S Martin Luther King Jr Blvd, Tallahassee, FL
p2783
sg7
I2813418
ssVFaulkner University
p2784
(dp2785
g3
VMontgomery, AL
p2786
sg5
V5345 Atlanta Hwy, Montgomery, AL
p2787
sg7
I1786266
ssVSacred Heart University
p2788
(dp2789
g3
VFairfield, CT
p2790
sg5
V5151 Park Ave, Fairfield, CT
p2791
sg7
I2910277
ssVMorgan State University
p2792
(dp2793
g3
VBaltimore, MD
p2794
sg5
V1700 East Cold Spring Lane, Baltimore, MD
p2795
sg7
I2993577
ssVWilmington College
p2796
(dp2797
g3
VWilmington, OH
p2798
sg5
V1870 Quaker Way, Wilmington, OH
p2799
sg7
I300939
ssVMiles College
p2800
(dp2801
g3
VFairfield, AL
p2802
sg5
V5500 Myron Massey Blvd, Fairfield, AL
p2803
sg7
I2021544
ssVUniversity of San Diego
p2804
(dp2805
g3
VSan Diego, CA
p2806
sg5
V5998 Alcala Park, San Diego, CA
p2807
sg7
I1304924
ssVShepherd University
p2808
(dp2809
g3
VShepherdstown, WV
p2810
sg5
V301 North King St, Shepherdstown, WV
p2811
sg7
I1372812
ssVTrinity Bible College
p2812
(dp2813
g3
VEllendale, ND
p2814
sg5
V50 6th Ave S, Ellendale, ND
p2815
sg7
I115002
ssVOregon State University
p2816
(dp2817
g3
VCorvallis, OR
p2818
sg5
V1500 S.W. Jefferson Avenue, Corvallis, OR
p2819
sg7
I15745809
ssVGraceland University-Lamoni
p2820
(dp2821
g3
VLamoni, IA
p2822
sg5
V1 University Place, Lamoni, IA
p2823
sg7
I1202856
ssVWingate University
p2824
(dp2825
g3
VWingate, NC
p2826
sg5
V220 North Camden Road, Wingate, NC
p2827
sg7
I1647897
ssVOhio Dominican University
p2828
(dp2829
g3
VColumbus, OH
p2830
sg5
V1216 Sunbury Road, Columbus, OH
p2831
sg7
I1878344
ssVHusson University
p2832
(dp2833
g3
VBangor, ME
p2834
sg5
V1 College Circle, Bangor, ME
p2835
sg7
I388162
ssVMinnesota State University Moorhead
p2836
(dp2837
g3
VMoorhead, MN
p2838
sg5
V1104 Seventh Avenue South, Moorhead, MN
p2839
sg7
I889250
ssVLivingstone College
p2840
(dp2841
g3
VSalisbury, NC
p2842
sg5
V701 W Monroe St, Salisbury, NC
p2843
sg7
I783099
ssVFlorida Atlantic University
p2844
(dp2845
g3
VBoca Raton, FL
p2846
sg5
V777 Glades Rd, Boca Raton, FL
p2847
sg7
I7704431
ssVConcordia University-Wisconsin
p2848
(dp2849
g3
VMequon, WI
p2850
sg5
V12800 N Lake Shore Dr, Mequon, WI
p2851
sg7
I389534
ssVYoungstown State University
p2852
(dp2853
g3
VYoungstown, OH
p2854
sg5
VOne University Plaza, Youngstown, OH
p2855
sg7
I3949953
ssVGarden City Community College
p2856
(dp2857
g3
VGarden City, KS
p2858
sg5
V801 Campus Dr, Garden City, KS
p2859
sg7
I636020
ssVWillamette University
p2860
(dp2861
g3
VSalem, OR
p2862
sg5
V900 State St, Salem, OR
p2863
sg7
I550419
ssVHartwick College
p2864
(dp2865
g3
VOneonta, NY
p2866
sg5
VOne Hartwick Drive, Oneonta, NY
p2867
sg7
I333221
ssVIllinois College
p2868
(dp2869
g3
VJacksonville, IL
p2870
sg5
V1101 W College Ave, Jacksonville, IL
p2871
sg7
I380039
ssVHarding University
p2872
(dp2873
g3
VSearcy, AR
p2874
sg5
V915 E. Market Ave., Searcy, AR
p2875
sg7
I1425706
ssVSam Houston State University
p2876
(dp2877
g3
VHuntsville, TX
p2878
sg5
V1806 Ave J, Huntsville, TX
p2879
sg7
I4191660
ssVTexas Lutheran University
p2880
(dp2881
g3
VSeguin, TX
p2882
sg5
V1000 W. Court St, Seguin, TX
p2883
sg7
I726030
ssVFramingham State University
p2884
(dp2885
g3
VFramingham, MA
p2886
sg5
V100 State Street, Framingham, MA
p2887
sg7
I217120
ssVOklahoma State University-Main Campus
p2888
(dp2889
g3
VStillwater, OK
p2890
sg5
V107 Whitehurst, Stillwater, OK
p2891
sg7
I19445963
ssVWittenberg University
p2892
(dp2893
g3
VSpringfield, OH
p2894
sg5
VWard St at N Wittenberg Ave, Springfield, OH
p2895
sg7
I445341
ssVSouthwest Baptist University
p2896
(dp2897
g3
VBolivar, MO
p2898
sg5
V1600 University Ave, Bolivar, MO
p2899
sg7
I1466704
ssVHolmes Community College
p2900
(dp2901
g3
VGoodman, MS
p2902
sg5
V#1 Hill St, Goodman, MS
p2903
sg7
I752618
ssVUniversity of Idaho
p2904
(dp2905
g3
VMoscow, ID
p2906
sg5
V875 Perimeter Drive, Moscow, ID
p2907
sg7
I6561109
ssVJuniata College
p2908
(dp2909
g3
VHuntingdon, PA
p2910
sg5
V1700 Moore St, Huntingdon, PA
p2911
sg7
I603817
ssVCollege of San Mateo
p2912
(dp2913
g3
VSan Mateo, CA
p2914
sg5
V1700 W Hillsdale Blvd, San Mateo, CA
p2915
sg7
I191798
ssVKilgore College
p2916
(dp2917
g3
VKilgore, TX
p2918
sg5
V1100 Broadway, Kilgore, TX
p2919
sg7
I688270
ssVNorfolk State University
p2920
(dp2921
g3
VNorfolk, VA
p2922
sg5
V700 Park Avenue, Norfolk, VA
p2923
sg7
I2548128
ssVAurora University
p2924
(dp2925
g3
VAurora, IL
p2926
sg5
V347 S Gladstone Ave, Aurora, IL
p2927
sg7
I495990
ssVCerritos College
p2928
(dp2929
g3
VNorwalk, CA
p2930
sg5
V11110 Alondra Blvd, Norwalk, CA
p2931
sg7
I340430
ssVFeather River Community College District
p2932
(dp2933
g3
VQuincy, CA
p2934
sg5
V570 Golden Eagle Ave, Quincy, CA
p2935
sg7
I218347
ssVBecker College
p2936
(dp2937
g3
VWorcester, MA
p2938
sg5
V61 Sever St, Worcester, MA
p2939
sg7
I188959
ssVCentral Michigan University
p2940
(dp2941
g3
VMount Pleasant, MI
p2942
sg5
V106 Warriner Hall, Mount Pleasant, MI
p2943
sg7
I6274563
ssVOhio Northern University
p2944
(dp2945
g3
VAda, OH
p2946
sg5
V525 S. Main St, Ada, OH
p2947
sg7
I838521
ssVUniversity of the Incarnate Word
p2948
(dp2949
g3
VSan Antonio, TX
p2950
sg5
V4301 Broadway, San Antonio, TX
p2951
sg7
I4243379
ssVCollege of William and Mary
p2952
(dp2953
g3
VWilliamsburg, VA
p2954
sg5
V200 Richmond Road, Williamsburg, VA
p2955
sg7
I6507909
ssVRandolph-Macon College
p2956
(dp2957
g3
VAshland, VA
p2958
sg5
V204 Henry St, Ashland, VA
p2959
sg7
I526037
ssVLehigh University
p2960
(dp2961
g3
VBethlehem, PA
p2962
sg5
V27 Memorial Drive West, Bethlehem, PA
p2963
sg7
I4953213
ssVWaldorf College
p2964
(dp2965
g3
VForest City, IA
p2966
sg5
V106 S Sixth St, Forest City, IA
p2967
sg7
I1295743
ssVThe University of Texas at El Paso
p2968
(dp2969
g3
VEl Paso, TX
p2970
sg5
V500 W. University Ave, El Paso, TX
p2971
sg7
I9205444
ssVBeloit College
p2972
(dp2973
g3
VBeloit, WI
p2974
sg5
V700 College St, Beloit, WI
p2975
sg7
I296057
ssVHardin-Simmons University
p2976
(dp2977
g3
VAbilene, TX
p2978
sg5
V2200 Hickory, Abilene, TX
p2979
sg7
I485851
ssVThe University of Montana
p2980
(dp2981
g3
VMissoula, MT
p2982
sg5
VMissoula, Montana, Missoula, MT
p2983
sg7
I5037234
ssVKentucky Christian University
p2984
(dp2985
g3
VGrayson, KY
p2986
sg5
V100 Academic Pkwy, Grayson, KY
p2987
sg7
I858414
ssVAugustana College
p2988
(dp2989
g3
VRock Island, IL
p2990
sg5
V639 38th St, Rock Island, IL
p2991
sg7
I584441
ssVHamline University
p2992
(dp2993
g3
VSaint Paul, MN
p2994
sg5
V1536 Hewitt Avenue, Saint Paul, MN
p2995
sg7
I375624
ssVUniversity of Rochester
p2996
(dp2997
g3
VRochester, NY
p2998
sg5
VWilson Blvd. - Wallis Hall, Rochester, NY
p2999
sg7
I414783
ssVWestern Oregon University
p3000
(dp3001
g3
VMonmouth, OR
p3002
sg5
V345 North Monmouth Ave, Monmouth, OR
p3003
sg7
I1188859
ssVSouthern University and A & M College
p3004
(dp3005
g3
VBaton Rouge, LA
p3006
sg5
V3rd Floor, J.S. Clark Adm. Building, P.O. Box 9374, Baton Rouge, LA
p3007
sg7
I2052469
ssVNorthern Michigan University
p3008
(dp3009
g3
VMarquette, MI
p3010
sg5
V1401 Presque Isle Avenue, Marquette, MI
p3011
sg7
I1897821
ssVBowdoin College
p3012
(dp3013
g3
VBrunswick, ME
p3014
sg5
V255 Maine Street, Brunswick, ME
p3015
sg7
I634049
ssVUniversity of Virginia-Main Campus
p3016
(dp3017
g3
VCharlottesville, VA
p3018
sg5
V1827 University Avenue, Charlottesville, VA
p3019
sg7
I20333481
ssVGeneva College
p3020
(dp3021
g3
VBeaver Falls, PA
p3022
sg5
V3200 College Ave, Beaver Falls, PA
p3023
sg7
I465557
ssVEast Mississippi Community College
p3024
(dp3025
g3
VScooba, MS
p3026
sg5
V1512 Kemper Street, Scooba, MS
p3027
sg7
I1190096
ssVIowa State University
p3028
(dp3029
g3
VAmes, IA
p3030
sg5
V3410 Beardshear Hall, Ames, IA
p3031
sg7
I22764523
ssVWashington University in St Louis
p3032
(dp3033
g3
VSaint Louis, MO
p3034
sg5
VOne Brookings Drive, Saint Louis, MO
p3035
sg7
I663784
ssVWagner College
p3036
(dp3037
g3
VStaten Island, NY
p3038
sg5
VOne Campus Rd, Staten Island, NY
p3039
sg7
I3310219
ssVJohns Hopkins University
p3040
(dp3041
g3
VBaltimore, MD
p3042
sg5
V3400 N Charles St, Baltimore, MD
p3043
sg7
I911527
ssVUniversity of Nevada-Reno
p3044
(dp3045
g3
VReno, NV
p3046
sg5
VNorth Virginia Street, Reno, NV
p3047
sg7
I7608249
ssVTowson University
p3048
(dp3049
g3
VTowson, MD
p3050
sg5
V8000 York Rd, Towson, MD
p3051
sg7
I4255172
ssVAlabama A & M University
p3052
(dp3053
g3
VNormal, AL
p3054
sg5
V4900 Meridian Street, Normal, AL
p3055
sg7
I3059353
ssVLos Angeles Southwest College
p3056
(dp3057
g3
VLos Angeles, CA
p3058
sg5
V1600 W. Imperial Hwy., Los Angeles, CA
p3059
sg7
I158481
ssVWorcester State University
p3060
(dp3061
g3
VWorcester, MA
p3062
sg5
V486 Chandler St, Worcester, MA
p3063
sg7
I110000
ssVAnna Maria College
p3064
(dp3065
g3
VPaxton, MA
p3066
sg5
V50 Sunset Lane, Paxton, MA
p3067
sg7
I231286
ssVColorado Mesa University
p3068
(dp3069
g3
VGrand Junction, CO
p3070
sg5
V1100 North Avenue, Grand Junction, CO
p3071
sg7
I1187177
ssS'United States Naval Academy'
p3072
(dp3073
g3
S'Annapolis, MD'
p3074
sg5
S'121 Blake Rd, Annapolis, MD'
p3075
sg7
I10419440
ssVMartin Luther College
p3076
(dp3077
g3
VNew Ulm, MN
p3078
sg5
V1995 Luther Ct, New Ulm, MN
p3079
sg7
I86223
ssVWestern Illinois University
p3080
(dp3081
g3
VMacomb, IL
p3082
sg5
V1 University Circle, Macomb, IL
p3083
sg7
I3259104
ssVVillanova University
p3084
(dp3085
g3
VVillanova, PA
p3086
sg5
V800 Lancaster Avenue, Villanova, PA
p3087
sg7
I6566982
ssVCalifornia State University-Fresno
p3088
(dp3089
g3
VFresno, CA
p3090
sg5
V5241 N Maple Ave, Fresno, CA
p3091
sg7
I11381458
ssVWest Chester University of Pennsylvania
p3092
(dp3093
g3
VWest Chester, PA
p3094
sg5
VUniversity Avenue and High Street, West Chester, PA
p3095
sg7
I811990
ssVIndiana State University
p3096
(dp3097
g3
VTerre Haute, IN
p3098
sg5
V210 N 7th St, Terre Haute, IN
p3099
sg7
I3896248
ssVBridgewater College
p3100
(dp3101
g3
VBridgewater, VA
p3102
sg5
V402 E College St, Bridgewater, VA
p3103
sg7
I541290
ssVSoutheast Missouri State University
p3104
(dp3105
g3
VCape Girardeau, MO
p3106
sg5
VOne University Plaza, MS4675, Cape Girardeau, MO
p3107
sg7
I2656106
ssVMercyhurst University
p3108
(dp3109
g3
VErie, PA
p3110
sg5
V501 E 38th St, Erie, PA
p3111
sg7
I2265332
ssVAugustana University
p3112
(dp3113
g3
VSioux Falls, SD
p3114
sg5
V2001 S Summit Ave, Sioux Falls, SD
p3115
sg7
I1804263
ssVSan Jose City College
p3116
(dp3117
g3
VSan Jose, CA
p3118
sg5
V2100 Moorpark Ave, San Jose, CA
p3119
sg7
I112240
ssVRochester Community and Technical College
p3120
(dp3121
g3
VRochester, MN
p3122
sg5
V851 30th Ave SE, Rochester, MN
p3123
sg7
I146864
ssVThiel College
p3124
(dp3125
g3
VGreenville, PA
p3126
sg5
V75 College Ave, Greenville, PA
p3127
sg7
I314376
ssVNew Mexico Military Institute
p3128
(dp3129
g3
VRoswell, NM
p3130
sg5
V101 W.  College Blvd., Roswell, NM
p3131
sg7
I1297542
ssVGlenville State College
p3132
(dp3133
g3
VGlenville, WV
p3134
sg5
V200 High Street, Glenville, WV
p3135
sg7
I1167438
ssVFranklin College
p3136
(dp3137
g3
VFranklin, IN
p3138
sg5
V101 Branigin Blvd, Franklin, IN
p3139
sg7
I469181
ssVSacramento City College
p3140
(dp3141
g3
VSacramento, CA
p3142
sg5
V3835 Freeport Blvd, Sacramento, CA
p3143
sg7
I192234
ssVNorth Carolina Central University
p3144
(dp3145
g3
VDurham, NC
p3146
sg5
V1801 Fayetteville Street, Durham, NC
p3147
sg7
I3587178
ssVWashington & Jefferson College
p3148
(dp3149
g3
VWashington, PA
p3150
sg5
V60 S Lincoln St, Washington, PA
p3151
sg7
I501355
ssVCitadel Military College of South Carolina
p3152
(dp3153
g3
VCharleston, SC
p3154
sg5
V171 Moultrie St, Charleston, SC
p3155
sg7
I5116575
ssVStetson University
p3156
(dp3157
g3
VDeLand, FL
p3158
sg5
V421 N Woodland Blvd, DeLand, FL
p3159
sg7
I1806067
ssVIdaho State University
p3160
(dp3161
g3
VPocatello, ID
p3162
sg5
V921 S 8th Ave, Pocatello, ID
p3163
sg7
I3415712
ssVArkansas Tech University
p3164
(dp3165
g3
VRussellville, AR
p3166
sg5
VAdministration Bldg 200, 1509 N Boulder Ave, Russellville, AR
p3167
sg7
I1331702
ssVCalifornia State University-Sacramento
p3168
(dp3169
g3
VSacramento, CA
p3170
sg5
V6000 J St, Sacramento, CA
p3171
sg7
I3633139
ssVEvangel University
p3172
(dp3173
g3
VSpringfield, MO
p3174
sg5
V1111 N Glenstone, Springfield, MO
p3175
sg7
I1096234
ssVSouth Dakota State University
p3176
(dp3177
g3
VBrookings, SD
p3178
sg5
VAdministration Lane, Brookings, SD
p3179
sg7
I2926564
ssVRhodes College
p3180
(dp3181
g3
VMemphis, TN
p3182
sg5
V2000 North Parkway, Memphis, TN
p3183
sg7
I613290
ssVFrostburg State University
p3184
(dp3185
g3
VFrostburg, MD
p3186
sg5
V101 Braddock Road, Frostburg, MD
p3187
sg7
I606577
ssVUniversity of Miami
p3188
(dp3189
g3
VCoral Gables, FL
p3190
sg5
VUniversity of Miami, Coral Gables, FL
p3191
sg7
I28467129
ssVFriends University
p3192
(dp3193
g3
VWichita, KS
p3194
sg5
V2100 W. University Ave., Wichita, KS
p3195
sg7
I779225
ssVHendrix College
p3196
(dp3197
g3
VConway, AR
p3198
sg5
V1600 Washington Ave, Conway, AR
p3199
sg7
I452019
ssVPacific University
p3200
(dp3201
g3
VForest Grove, OR
p3202
sg5
V2043 College Way, Forest Grove, OR
p3203
sg7
I793497
ssVNavarro College
p3204
(dp3205
g3
VCorsicana, TX
p3206
sg5
V3200 W 7th Avenue, Corsicana, TX
p3207
sg7
I778877
ssVNorth Park University
p3208
(dp3209
g3
VChicago, IL
p3210
sg5
V3225 W Foster Ave, Chicago, IL
p3211
sg7
I469269
ssVUniversity of Redlands
p3212
(dp3213
g3
VRedlands, CA
p3214
sg5
V1200 E. Colton Ave, Redlands, CA
p3215
sg7
I619196
ssVThe College of New Jersey
p3216
(dp3217
g3
VEwing, NJ
p3218
sg5
V2000 Pennington Road, Ewing, NJ
p3219
sg7
I303052
ssVHartnell College
p3220
(dp3221
g3
VSalinas, CA
p3222
sg5
V411 Central Avenue, Salinas, CA
p3223
sg7
I60678
ssVThe College of Saint Scholastica
p3224
(dp3225
g3
VDuluth, MN
p3226
sg5
V1200 Kenwood Ave, Duluth, MN
p3227
sg7
I557593
ssVMissouri Baptist University
p3228
(dp3229
g3
VSaint Louis, MO
p3230
sg5
VOne College Park Dr, Saint Louis, MO
p3231
sg7
I1240385
ssVAlbion College
p3232
(dp3233
g3
VAlbion, MI
p3234
sg5
V611 E Porter St, Albion, MI
p3235
sg7
I496497
ssVWashburn University
p3236
(dp3237
g3
VTopeka, KS
p3238
sg5
V1700 SW College Avenue, Topeka, KS
p3239
sg7
I1514764
ssVWestern Michigan University
p3240
(dp3241
g3
VKalamazoo, MI
p3242
sg5
V1903 West Michigan Avenue, Kalamazoo, MI
p3243
sg7
I8577674
ssVScottsdale Community College
p3244
(dp3245
g3
VScottsdale, AZ
p3246
sg5
V9000 E Chaparral Rd, Scottsdale, AZ
p3247
sg7
I316680
ssVAlma College
p3248
(dp3249
g3
VAlma, MI
p3250
sg5
V614 W Superior, Alma, MI
p3251
sg7
I525194
ssVRiverside City College
p3252
(dp3253
g3
VRiverside, CA
p3254
sg5
V4800 Magnolia Avenue, Riverside, CA
p3255
sg7
I292605
ssVWilkes University
p3256
(dp3257
g3
VWilkes-Barre, PA
p3258
sg5
V84 West South Street, Wilkes-Barre, PA
p3259
sg7
I363327
ssVClemson University
p3260
(dp3261
g3
VClemson, SC
p3262
sg5
V201 Sikes Hall, Clemson, SC
p3263
sg7
I34668941
ssVYale University
p3264
(dp3265
g3
VNew Haven, CT
p3266
sg5
VWoodbridge Hall, New Haven, CT
p3267
sg7
I3462163
ssVJohnson C Smith University
p3268
(dp3269
g3
VCharlotte, NC
p3270
sg5
V100 Beatties Ford Road, Charlotte, NC
p3271
sg7
I978380
ssVWhitworth University
p3272
(dp3273
g3
VSpokane, WA
p3274
sg5
V300 W Hawthorne Rd, Spokane, WA
p3275
sg7
I628179
ssVPresentation College
p3276
(dp3277
g3
VAberdeen, SD
p3278
sg5
V1500 N Main, Aberdeen, SD
p3279
sg7
I1022986
ssVMt San Antonio College
p3280
(dp3281
g3
VWalnut, CA
p3282
sg5
V1100 N Grand Ave, Walnut, CA
p3283
sg7
I239265
ssVFranklin Pierce University
p3284
(dp3285
g3
VRindge, NH
p3286
sg5
V40 University Drive, Rindge, NH
p3287
sg7
I211228
ssVEmporia State University
p3288
(dp3289
g3
VEmporia, KS
p3290
sg5
V1 Kellogg Circle, Emporia, KS
p3291
sg7
I1436014
ssVUniversity of Arizona
p3292
(dp3293
g3
VTucson, AZ
p3294
sg5
V1401 E University, Tucson, AZ
p3295
sg7
I21399664
ssVEmory & Henry College
p3296
(dp3297
g3
VEmory, VA
p3298
sg5
V30461 Garnand Drive, Emory, VA
p3299
sg7
I567110
ssVBluefield College
p3300
(dp3301
g3
VBluefield, VA
p3302
sg5
V3000 College Avenue, Bluefield, VA
p3303
sg7
I994306
ssVUniversity of Wisconsin-Stevens Point
p3304
(dp3305
g3
VStevens Point, WI
p3306
sg5
V2100 Main St, Stevens Point, WI
p3307
sg7
I229059
ssVCopiah-Lincoln Community College
p3308
(dp3309
g3
VWesson, MS
p3310
sg5
V1001 Co-Lin Lane, Wesson, MS
p3311
sg7
I627615
ssVBriar Cliff University
p3312
(dp3313
g3
VSioux City, IA
p3314
sg5
V3303 Rebecca Street, Sioux City, IA
p3315
sg7
I1049381
ssVAllan Hancock College
p3316
(dp3317
g3
VSanta Maria, CA
p3318
sg5
V800 South College Drive, Santa Maria, CA
p3319
sg7
I72436
ssVAmerican International College
p3320
(dp3321
g3
VSpringfield, MA
p3322
sg5
V1000 State Street, Springfield, MA
p3323
sg7
I1489931
ssVSaint Vincent College
p3324
(dp3325
g3
VLatrobe, PA
p3326
sg5
V300 Fraser Purchase Rd, Latrobe, PA
p3327
sg7
I601171
ssVTulane University of Louisiana
p3328
(dp3329
g3
VNew Orleans, LA
p3330
sg5
V6823 St. Charles Avenue, New Orleans, LA
p3331
sg7
I12855742
ssVWestern Kentucky University
p3332
(dp3333
g3
VBowling Green, KY
p3334
sg5
V1906 College Heights Blvd, Bowling Green, KY
p3335
sg7
I7648174
ssVGannon University
p3336
(dp3337
g3
VErie, PA
p3338
sg5
V109 W Sixth St, Erie, PA
p3339
sg7
I1898352
ssVLindenwood University
p3340
(dp3341
g3
VSaint Charles, MO
p3342
sg5
V209 S Kingshighway, Saint Charles, MO
p3343
sg7
I2131191
ssVUniversity of North Carolina at Chapel Hill
p3344
(dp3345
g3
VChapel Hill, NC
p3346
sg5
V103 South Bldg Cb 9100, Chapel Hill, NC
p3347
sg7
I23461114
ssVMount Saint Joseph University
p3348
(dp3349
g3
VCincinnati, OH
p3350
sg5
V5701 Delhi Rd, Cincinnati, OH
p3351
sg7
I406315
ssVBlack Hills State University
p3352
(dp3353
g3
VSpearfish, SD
p3354
sg5
V1200 University St, Spearfish, SD
p3355
sg7
I728048
ssVMaine Maritime Academy
p3356
(dp3357
g3
VCastine, ME
p3358
sg5
V1 Pleasant St., Castine, ME
p3359
sg7
I354429
ssVThe University of Tennessee-Chattanooga
p3360
(dp3361
g3
VChattanooga, TN
p3362
sg5
V615 McCallie Ave, Chattanooga, TN
p3363
sg7
I3971229
ssVMississippi Valley State University
p3364
(dp3365
g3
VItta Bena, MS
p3366
sg5
V14000 Highway 82 West, Itta Bena, MS
p3367
sg7
I1528006
ssVTrinity University
p3368
(dp3369
g3
VSan Antonio, TX
p3370
sg5
VOne Trinity Place, San Antonio, TX
p3371
sg7
I546052
ssVSaint Cloud State University
p3372
(dp3373
g3
VSaint Cloud, MN
p3374
sg5
V720 Fourth Ave. South, Saint Cloud, MN
p3375
sg7
I1158720
ssVConcordia University-Nebraska
p3376
(dp3377
g3
VSeward, NE
p3378
sg5
V800 N Columbia Ave, Seward, NE
p3379
sg7
I1161166
ssVLong Beach City College
p3380
(dp3381
g3
VLong Beach, CA
p3382
sg5
V4901 E. Carson St., Long Beach, CA
p3383
sg7
I291376
ssVKentucky Wesleyan College
p3384
(dp3385
g3
VOwensboro, KY
p3386
sg5
V3000 Frederica Street, Owensboro, KY
p3387
sg7
I984548
ssVNortheastern Oklahoma A&M College
p3388
(dp3389
g3
VMiami, OK
p3390
sg5
V200 I St NE, Miami, OK
p3391
sg7
I762949
ssVUniversity of Mount Union
p3392
(dp3393
g3
VAlliance, OH
p3394
sg5
V1972 Clark Ave., Alliance, OH
p3395
sg7
I551676
ssVAdrian College
p3396
(dp3397
g3
VAdrian, MI
p3398
sg5
V110 S Madison St, Adrian, MI
p3399
sg7
I337096
ssVWeber State University
p3400
(dp3401
g3
VOgden, UT
p3402
sg5
V3850 Dixon Parkway Dr. Dept. 1031, Ogden, UT
p3403
sg7
I3373651
ssVSouthern Utah University
p3404
(dp3405
g3
VCedar City, UT
p3406
sg5
V351 West University Blvd, Cedar City, UT
p3407
sg7
I2512834
ssVUniversity of California-Los Angeles
p3408
(dp3409
g3
VLos Angeles, CA
p3410
sg5
V405 Hilgard Ave, Los Angeles, CA
p3411
sg7
I26735958
ssVMississippi State University
p3412
(dp3413
g3
VMississippi State, MS
p3414
sg5
VLee Boulevard, Mississippi State, MS
p3415
sg7
I22311861
ssVDavenport University
p3416
(dp3417
g3
VGrand Rapids, MI
p3418
sg5
V6191 Kraft Avenue S.E., Grand Rapids, MI
p3419
sg7
I1282150
ssVBall State University
p3420
(dp3421
g3
VMuncie, IN
p3422
sg5
V2000 University Ave, Muncie, IN
p3423
sg7
I7220032
ssVUniversity of Chicago
p3424
(dp3425
g3
VChicago, IL
p3426
sg5
V5801 S Ellis Ave, Chicago, IL
p3427
sg7
I754086
ssVWinona State University
p3428
(dp3429
g3
VWinona, MN
p3430
sg5
V175 West Mark Street, Winona, MN
p3431
sg7
I1406685
ssVRockford University
p3432
(dp3433
g3
VRockford, IL
p3434
sg5
V5050 E State St, Rockford, IL
p3435
sg7
I226624
ssVUniversity of Puget Sound
p3436
(dp3437
g3
VTacoma, WA
p3438
sg5
V1500 N. Warner Street, Tacoma, WA
p3439
sg7
I417023
ssVOklahoma Baptist University
p3440
(dp3441
g3
VShawnee, OK
p3442
sg5
V500 W University, Shawnee, OK
p3443
sg7
I1585595
ssVSnow College
p3444
(dp3445
g3
VEphraim, UT
p3446
sg5
V150 E College Ave, Ephraim, UT
p3447
sg7
I711538
ssVCentral College
p3448
(dp3449
g3
VPella, IA
p3450
sg5
V812 University, Pella, IA
p3451
sg7
I502386
ssVColorado State University-Pueblo
p3452
(dp3453
g3
VPueblo, CO
p3454
sg5
V2200 Bonforte Blvd, Pueblo, CO
p3455
sg7
I1968101
ssVUniversity of Colorado Boulder
p3456
(dp3457
g3
VBoulder, CO
p3458
sg5
VRegent Drive at Broadway, Boulder, CO
p3459
sg7
I18372291
ssVOhio State University-Main Campus
p3460
(dp3461
g3
VColumbus, OH
p3462
sg5
V190 N. Oval Mall, Columbus, OH
p3463
sg7
I37378146
ssVSierra College
p3464
(dp3465
g3
VRocklin, CA
p3466
sg5
V5000 Rocklin Road, Rocklin, CA
p3467
sg7
I132159
ssVGeorgia Military College
p3468
(dp3469
g3
VMilledgeville, GA
p3470
sg5
V201 E Greene St, Milledgeville, GA
p3471
sg7
I1192127
ssVGettysburg College
p3472
(dp3473
g3
VGettysburg, PA
p3474
sg5
V300 N Washington St, Gettysburg, PA
p3475
sg7
I403033
ssVVirginia University of Lynchburg
p3476
(dp3477
g3
VLynchburg, VA
p3478
sg5
V2058 Garfield Ave, Lynchburg, VA
p3479
sg7
I1011435
ssVDavidson College
p3480
(dp3481
g3
VDavidson, NC
p3482
sg5
V102 N. Main Street, Davidson, NC
p3483
sg7
I1485540
ssVClarion University of Pennsylvania
p3484
(dp3485
g3
VClarion, PA
p3486
sg5
V840 Wood St, Clarion, PA
p3487
sg7
I770868
ssVFayetteville State University
p3488
(dp3489
g3
VFayetteville, NC
p3490
sg5
V1200 Murchison Rd, Fayetteville, NC
p3491
sg7
I805261
ssVConcordia College Alabama
p3492
(dp3493
g3
VSelma, AL
p3494
sg5
V1712 Broad Street, Selma, AL
p3495
sg7
I527693
ssVBirmingham Southern College
p3496
(dp3497
g3
VBirmingham, AL
p3498
sg5
V900 Arkadelphia Road, Birmingham, AL
p3499
sg7
I509215
ssVLane College
p3500
(dp3501
g3
VJackson, TN
p3502
sg5
V545 Lane Ave, Jackson, TN
p3503
sg7
I842628
ssVBaylor University
p3504
(dp3505
g3
VWaco, TX
p3506
sg5
V500 Speight Ave., Waco, TX
p3507
sg7
I29544710
ssVEastern Arizona College
p3508
(dp3509
g3
VThatcher, AZ
p3510
sg5
V615 N. Stadium Ave., Thatcher, AZ
p3511
sg7
I782144
ssVSavannah State University
p3512
(dp3513
g3
VSavannah, GA
p3514
sg5
V3219 College Street, Savannah, GA
p3515
sg7
I2255561
ssVMillsaps College
p3516
(dp3517
g3
VJackson, MS
p3518
sg5
V1701 N State St, Jackson, MS
p3519
sg7
I500420
ssVUniversity at Buffalo
p3520
(dp3521
g3
VBuffalo, NY
p3522
sg5
V12 Capen Hall, Buffalo, NY
p3523
sg7
I7539610
ssVFort Scott Community College
p3524
(dp3525
g3
VFort Scott, KS
p3526
sg5
V2108 S Horton, Fort Scott, KS
p3527
sg7
I457437
ssVBethel College-North Newton
p3528
(dp3529
g3
VNorth Newton, KS
p3530
sg5
V300 E 27th St, North Newton, KS
p3531
sg7
I791434
ssVUniversity of Louisiana at Monroe
p3532
(dp3533
g3
VMonroe, LA
p3534
sg5
V700 University Avenue, Monroe, LA
p3535
sg7
I5158578
ssVUniversity of Arkansas
p3536
(dp3537
g3
VFayetteville, AR
p3538
sg5
VAdministration Bldg 425, Fayetteville, AR
p3539
sg7
I34237143
ssVJackson State University
p3540
(dp3541
g3
VJackson, MS
p3542
sg5
V1400 J R Lynch Street, Jackson, MS
p3543
sg7
I2298771
ssVGallaudet University
p3544
(dp3545
g3
VWashington, DC
p3546
sg5
V800 Florida Ave, NE, Washington, DC
p3547
sg7
I396916
ss.